

Microchip MPLAB XC8 Assembler V2.46 build 20240104201356 
                                                                                               Tue Jul 16 15:34:22 2024

Microchip MPLAB XC8 C Compiler v2.46 (Free license) build 20240104201356 Og1 
     1                           	processor	18F4620
     2                           	fnconf	rparam,??,?,0
     3                           	pagewidth 120
     4                           	opt	flic
     5                           	psect	idataCOMRAM,global,class=CODE,delta=1,noexec
     6                           	psect	cinit,global,reloc=2,class=CODE,delta=1
     7                           	psect	bssCOMRAM,global,class=COMRAM,space=1,delta=1,lowdata,noexec
     8                           	psect	dataCOMRAM,global,class=COMRAM,space=1,delta=1,lowdata,noexec
     9                           	psect	cstackCOMRAM,global,class=COMRAM,space=1,delta=1,lowdata,noexec
    10                           	psect	text0,global,reloc=2,class=CODE,delta=1
    11                           	psect	text1,global,reloc=2,class=CODE,delta=1
    12                           	psect	text2,global,reloc=2,class=CODE,delta=1
    13                           	psect	text3,global,reloc=2,class=CODE,delta=1
    14                           	psect	text4,global,reloc=2,class=CODE,delta=1
    15                           	psect	text5,global,reloc=2,class=CODE,delta=1
    16                           	psect	text6,global,reloc=2,class=CODE,delta=1
    17                           	psect	text7,global,reloc=2,class=CODE,delta=1
    18                           	psect	text8,global,reloc=2,class=CODE,delta=1
    19                           	psect	text9,global,reloc=2,class=CODE,delta=1
    20                           	psect	text10,global,reloc=2,class=CODE,delta=1,group=1
    21                           	psect	text11,global,reloc=2,class=CODE,delta=1,group=1
    22                           	psect	text12,global,reloc=2,class=CODE,delta=1
    23                           	psect	text13,global,reloc=2,class=CODE,delta=1
    24                           	psect	text14,global,reloc=2,class=CODE,delta=1
    25                           	psect	smallconst,global,reloc=2,class=SMALLCONST,delta=1,noexec
    26                           	psect	intsave_regs,global,class=BIGRAM,space=1,delta=1,noexec
    27                           	psect	rparam,global,class=COMRAM,space=1,delta=1,noexec
    28                           	psect	config,global,abs,ovrld,class=CONFIG,space=4,delta=1,noexec
    29   000000                     
    30                           ; Generated 17/10/2023 GMT
    31                           ; 
    32                           ; Copyright © 2023, Microchip Technology Inc. and its subsidiaries ("Microchip")
    33                           ; All rights reserved.
    34                           ; 
    35                           ; This software is developed by Microchip Technology Inc. and its subsidiaries ("Microch
      +                          ip").
    36                           ; 
    37                           ; Redistribution and use in source and binary forms, with or without modification, are
    38                           ; permitted provided that the following conditions are met:
    39                           ; 
    40                           ;     1. Redistributions of source code must retain the above copyright notice, this lis
      +                          t of
    41                           ;        conditions and the following disclaimer.
    42                           ; 
    43                           ;     2. Redistributions in binary form must reproduce the above copyright notice, this 
      +                          list
    44                           ;        of conditions and the following disclaimer in the documentation and/or other
    45                           ;        materials provided with the distribution. Publication is not required when
    46                           ;        this file is used in an embedded application.
    47                           ; 
    48                           ;     3. Microchip's name may not be used to endorse or promote products derived from th
      +                          is
    49                           ;        software without specific prior written permission.
    50                           ; 
    51                           ; THIS SOFTWARE IS PROVIDED BY MICROCHIP "AS IS" AND ANY EXPRESS OR IMPLIED WARRANTIES,
    52                           ; INCLUDING, BUT NOT LIMITED TO, THE IMPLIED WARRANTIES OF MERCHANTABILITY AND FITNESS F
      +                          OR
    53                           ; PURPOSE ARE DISCLAIMED.  IN NO EVENT SHALL MICROCHIP BE LIABLE FOR ANY DIRECT, INDIREC
      +                          T,
    54                           ; INCIDENTAL, SPECIAL, EXEMPLARY, OR CONSEQUENTIAL DAMAGES (INCLUDING BUT NOT LIMITED TO
    55                           ; PROCUREMENT OF SUBSTITUTE GOODS OR SERVICES; LOSS OF USE, DATA OR PROFITS; OR BUSINESS
    56                           ; INTERRUPTION) HOWSOEVER CAUSED AND ON ANY THEORY OF LIABILITY, WHETHER IN CONTRACT, ST
      +                          RICT
    57                           ; LIABILITY, OR TORT (INCLUDING NEGLIGENCE OR OTHERWISE) ARISING IN ANY WAY OUT OF THE U
      +                          SE OF
    58                           ; THIS SOFTWARE, EVEN IF ADVISED OF THE POSSIBILITY OF SUCH DAMAGE.
    59                           ; 
    60                           ; 
    61                           ; Code-generator required, PIC18F4620 Definitions
    62                           ; 
    63                           ; SFR Addresses
    64   000000                     
    65                           	psect	idataCOMRAM
    66   001944                     __pidataCOMRAM:
    67                           	callstack 0
    68                           
    69                           ;initializer for _port_regesters
    70   001944  80                 	db	128
    71   001945  0F                 	db	15
    72   001946  81                 	db	129
    73   001947  0F                 	db	15
    74   001948  82                 	db	130
    75   001949  0F                 	db	15
    76   00194A  83                 	db	131
    77   00194B  0F                 	db	15
    78   00194C  84                 	db	132
    79   00194D  0F                 	db	15
    80                           
    81                           ;initializer for _lat_regesters
    82   00194E  89                 	db	137
    83   00194F  0F                 	db	15
    84   001950  8A                 	db	138
    85   001951  0F                 	db	15
    86   001952  8B                 	db	139
    87   001953  0F                 	db	15
    88   001954  8C                 	db	140
    89   001955  0F                 	db	15
    90   001956  8D                 	db	141
    91   001957  0F                 	db	15
    92                           
    93                           ;initializer for _tris_regesters
    94   001958  92                 	db	146
    95   001959  0F                 	db	15
    96   00195A  93                 	db	147
    97   00195B  0F                 	db	15
    98   00195C  94                 	db	148
    99   00195D  0F                 	db	15
   100   00195E  95                 	db	149
   101   00195F  0F                 	db	15
   102   001960  96                 	db	150
   103   001961  0F                 	db	15
   104                           
   105                           ;initializer for _segment_1
   106   001962  02                 	db	2
   107   001963  0A                 	db	10
   108   001964  12                 	db	18
   109   001965  1A                 	db	26
   110   001966  00                 	db	0
   111                           
   112                           ;initializer for _btn_led
   113   001967  7A                 	db	122
   114   001968  01                 	db	1
   115   001969  00                 	db	0
   116                           
   117                           ;initializer for _btn_reset
   118   00196A  6A                 	db	106
   119   00196B  01                 	db	1
   120   00196C  00                 	db	0
   121                           
   122                           ;initializer for _btn_count
   123   00196D  62                 	db	98
   124   00196E  01                 	db	1
   125   00196F  00                 	db	0
   126                           
   127                           ;initializer for _btn_led_st
   128   001970  01                 	db	1
   129                           
   130                           ;initializer for _btn_reset_st
   131   001971  01                 	db	1
   132                           
   133                           ;initializer for _btn_count_st
   134   001972  01                 	db	1
   135                           
   136                           ;initializer for _led
   137   001973  43                 	db	67
   138                           
   139                           ;initializer for _seg_en_4
   140   001974  03                 	db	3
   141                           
   142                           ;initializer for _seg_en_3
   143   001975  0B                 	db	11
   144                           
   145                           ;initializer for _seg_en_2
   146   001976  13                 	db	19
   147                           
   148                           ;initializer for _seg_en_1
   149   001977  1B                 	db	27
   150   000000                     _PORTE	set	3972
   151   000000                     _PORTD	set	3971
   152   000000                     _PORTC	set	3970
   153   000000                     _PORTB	set	3969
   154   000000                     _PORTA	set	3968
   155   000000                     _LATA	set	3977
   156   000000                     _TRISA	set	3986
   157   000000                     _TRISE	set	3990
   158   000000                     _TRISD	set	3989
   159   000000                     _TRISC	set	3988
   160   000000                     _TRISB	set	3987
   161   000000                     _LATE	set	3981
   162   000000                     _LATD	set	3980
   163   000000                     _LATC	set	3979
   164   000000                     _LATB	set	3978
   165                           
   166                           ; #config settings
   167                           
   168                           	psect	cinit
   169   00190E                     __pcinit:
   170                           	callstack 0
   171   00190E                     start_initialization:
   172                           	callstack 0
   173   00190E                     __initialization:
   174                           	callstack 0
   175                           
   176                           ; Initialize objects allocated to COMRAM (52 bytes)
   177                           ; load TBLPTR registers with __pidataCOMRAM
   178   00190E  0E44               	movlw	low __pidataCOMRAM
   179   001910  6EF6               	movwf	tblptrl,c
   180   001912  0E19               	movlw	high __pidataCOMRAM
   181   001914  6EF7               	movwf	tblptrh,c
   182   001916  0E00               	movlw	low (__pidataCOMRAM shr (0+16))
   183   001918  6EF8               	movwf	tblptru,c
   184   00191A  EE00  F001         	lfsr	0,__pdataCOMRAM
   185   00191E  EE10 F034          	lfsr	1,52
   186   001922                     copy_data0:
   187   001922  0009               	tblrd		*+
   188   001924  CFF5 FFEE          	movff	tablat,postinc0
   189   001928  50E5               	movf	postdec1,w,c
   190   00192A  50E1               	movf	fsr1l,w,c
   191   00192C  E1FA               	bnz	copy_data0
   192                           
   193                           ; Clear objects allocated to COMRAM (10 bytes)
   194   00192E  EE00  F045         	lfsr	0,__pbssCOMRAM
   195   001932  0E0A               	movlw	10
   196   001934                     clear_0:
   197   001934  6AEE               	clrf	postinc0,c
   198   001936  06E8               	decf	wreg,f,c
   199   001938  E1FD               	bnz	clear_0
   200   00193A                     end_of_initialization:
   201                           	callstack 0
   202   00193A                     __end_of__initialization:
   203                           	callstack 0
   204   00193A  0E00               	movlw	low (__Lmediumconst shr (0+16))
   205   00193C  6EF8               	movwf	tblptru,c
   206   00193E  0100               	movlb	0
   207   001940  EF01  F008         	goto	_main	;jump to C main() function
   208                           
   209                           	psect	bssCOMRAM
   210   000045                     __pbssCOMRAM:
   211                           	callstack 0
   212   000045                     _c:
   213                           	callstack 0
   214   000045                     	ds	2
   215   000047                     _number:
   216                           	callstack 0
   217   000047                     	ds	2
   218   000049                     _VAR:
   219                           	callstack 0
   220   000049                     	ds	1
   221   00004A                     _counter:
   222                           	callstack 0
   223   00004A                     	ds	1
   224   00004B                     LED_TURN_TOGGEL@F2909:
   225                           	callstack 0
   226   00004B                     	ds	1
   227   00004C                     LED_TURN_OFF@F2904:
   228                           	callstack 0
   229   00004C                     	ds	1
   230   00004D                     LED_TURN_ON@F2899:
   231                           	callstack 0
   232   00004D                     	ds	1
   233   00004E                     LED_intailize@F2894:
   234                           	callstack 0
   235   00004E                     	ds	1
   236                           
   237                           	psect	dataCOMRAM
   238   000001                     __pdataCOMRAM:
   239                           	callstack 0
   240   000001                     _port_regesters:
   241                           	callstack 0
   242   000001                     	ds	10
   243   00000B                     _lat_regesters:
   244                           	callstack 0
   245   00000B                     	ds	10
   246   000015                     _tris_regesters:
   247                           	callstack 0
   248   000015                     	ds	10
   249   00001F                     _segment_1:
   250                           	callstack 0
   251   00001F                     	ds	5
   252   000024                     _btn_led:
   253                           	callstack 0
   254   000024                     	ds	3
   255   000027                     _btn_reset:
   256                           	callstack 0
   257   000027                     	ds	3
   258   00002A                     _btn_count:
   259                           	callstack 0
   260   00002A                     	ds	3
   261   00002D                     _btn_led_st:
   262                           	callstack 0
   263   00002D                     	ds	1
   264   00002E                     _btn_reset_st:
   265                           	callstack 0
   266   00002E                     	ds	1
   267   00002F                     _btn_count_st:
   268                           	callstack 0
   269   00002F                     	ds	1
   270   000030                     _led:
   271                           	callstack 0
   272   000030                     	ds	1
   273   000031                     _seg_en_4:
   274                           	callstack 0
   275   000031                     	ds	1
   276   000032                     _seg_en_3:
   277                           	callstack 0
   278   000032                     	ds	1
   279   000033                     _seg_en_2:
   280                           	callstack 0
   281   000033                     	ds	1
   282   000034                     _seg_en_1:
   283                           	callstack 0
   284   000034                     	ds	1
   285                           
   286                           	psect	cstackCOMRAM
   287   000035                     __pcstackCOMRAM:
   288                           	callstack 0
   289   000035                     ?___lwdiv:
   290                           	callstack 0
   291   000035                     gpio_pin_direction_intailize@pin_config:
   292                           	callstack 0
   293   000035                     gpio_pin_write_logic@pin_config:
   294                           	callstack 0
   295   000035                     gpio_pin_read_logic@pin_config:
   296                           	callstack 0
   297   000035                     ___lwdiv@dividend:
   298                           	callstack 0
   299                           
   300                           ; 2 bytes @ 0x0
   301   000035                     	ds	1
   302   000036                     ??_gpio_pin_direction_intailize:
   303   000036                     gpio_pin_write_logic@logic:
   304                           	callstack 0
   305   000036                     gpio_pin_read_logic@logic:
   306                           	callstack 0
   307                           
   308                           ; 1 bytes @ 0x1
   309   000036                     	ds	1
   310   000037                     ??_gpio_pin_write_logic:
   311   000037                     ??_gpio_pin_read_logic:
   312   000037                     ___lwdiv@divisor:
   313                           	callstack 0
   314                           
   315                           ; 2 bytes @ 0x2
   316   000037                     	ds	2
   317   000039                     ___lwdiv@quotient:
   318                           	callstack 0
   319                           
   320                           ; 2 bytes @ 0x4
   321   000039                     	ds	2
   322   00003B                     button_read@btn:
   323                           	callstack 0
   324   00003B                     gpio_pin_direction_intailize@ret:
   325                           	callstack 0
   326   00003B                     ___lwdiv@counter:
   327                           	callstack 0
   328                           
   329                           ; 1 bytes @ 0x6
   330   00003B                     	ds	1
   331   00003C                     ?___lwmod:
   332                           	callstack 0
   333   00003C                     button_initialize@btn:
   334                           	callstack 0
   335   00003C                     button_read@btn_st:
   336                           	callstack 0
   337   00003C                     gpio_pin_write_logic@ret:
   338                           	callstack 0
   339   00003C                     ___lwmod@dividend:
   340                           	callstack 0
   341                           
   342                           ; 2 bytes @ 0x7
   343   00003C                     	ds	1
   344   00003D                     button_initialize@ret:
   345                           	callstack 0
   346   00003D                     LED_TURN_ON@led:
   347                           	callstack 0
   348   00003D                     LED_TURN_OFF@led:
   349                           	callstack 0
   350   00003D                     gpio_pin_intailize@pin_config:
   351                           	callstack 0
   352                           
   353                           ; 1 bytes @ 0x8
   354   00003D                     	ds	1
   355   00003E                     ??_LED_TURN_ON:
   356   00003E                     ??_LED_TURN_OFF:
   357   00003E                     button_read@ret:
   358                           	callstack 0
   359   00003E                     gpio_pin_intailize@ret:
   360                           	callstack 0
   361   00003E                     ___lwmod@divisor:
   362                           	callstack 0
   363                           
   364                           ; 2 bytes @ 0x9
   365   00003E                     	ds	1
   366   00003F                     seven_segment_intailize@segment:
   367                           	callstack 0
   368   00003F                     button_read@pin_logic_status:
   369                           	callstack 0
   370   00003F                     LED_intailize@led:
   371                           	callstack 0
   372   00003F                     LED_TURN_ON@ret:
   373                           	callstack 0
   374   00003F                     LED_TURN_OFF@ret:
   375                           	callstack 0
   376                           
   377                           ; 1 bytes @ 0xA
   378   00003F                     	ds	1
   379   000040                     ??_LED_intailize:
   380   000040                     seven_segment_intailize@ret:
   381                           	callstack 0
   382   000040                     LED_TURN_ON@pin_obj:
   383                           	callstack 0
   384   000040                     LED_TURN_OFF@pin_obj:
   385                           	callstack 0
   386   000040                     ___lwmod@counter:
   387                           	callstack 0
   388                           
   389                           ; 1 bytes @ 0xB
   390   000040                     	ds	1
   391   000041                     seven_segment_write_number@segment:
   392                           	callstack 0
   393   000041                     LED_intailize@ret:
   394                           	callstack 0
   395                           
   396                           ; 1 bytes @ 0xC
   397   000041                     	ds	1
   398   000042                     seven_segment_write_number@number:
   399                           	callstack 0
   400   000042                     LED_intailize@pin_obj:
   401                           	callstack 0
   402                           
   403                           ; 1 bytes @ 0xD
   404   000042                     	ds	1
   405   000043                     seven_segment_write_number@ret:
   406                           	callstack 0
   407                           
   408                           ; 1 bytes @ 0xE
   409   000043                     	ds	1
   410   000044                     ??_main:
   411                           
   412                           ; 1 bytes @ 0xF
   413   000044                     	ds	1
   414                           
   415 ;;
   416 ;;Main: autosize = 0, tempsize = 1, incstack = 0, save=0
   417 ;;
   418 ;; *************** function _main *****************
   419 ;; Defined at:
   420 ;;		line 98 in file "applicatin.c"
   421 ;; Parameters:    Size  Location     Type
   422 ;;		None
   423 ;; Auto vars:     Size  Location     Type
   424 ;;  ret             1    0        unsigned char 
   425 ;; Return value:  Size  Location     Type
   426 ;;                  2  243[None  ] int 
   427 ;; Registers used:
   428 ;;		wreg, fsr1l, fsr1h, fsr2l, fsr2h, status,2, status,0, prodl, prodh, cstack
   429 ;; Tracked objects:
   430 ;;		On entry : 0/0
   431 ;;		On exit  : 0/0
   432 ;;		Unchanged: 0/0
   433 ;; Data sizes:     COMRAM   BANK0   BANK1   BANK2   BANK3   BANK4   BANK5   BANK6   BANK7   BANK8   BANK9  BANK10  BANK1
      +1  BANK12  BANK13  BANK14  BANK15
   434 ;;      Params:         0       0       0       0       0       0       0       0       0       0       0       0       
      +0       0       0       0       0
   435 ;;      Locals:         0       0       0       0       0       0       0       0       0       0       0       0       
      +0       0       0       0       0
   436 ;;      Temps:          1       0       0       0       0       0       0       0       0       0       0       0       
      +0       0       0       0       0
   437 ;;      Totals:         1       0       0       0       0       0       0       0       0       0       0       0       
      +0       0       0       0       0
   438 ;;Total ram usage:        1 bytes
   439 ;; Hardware stack levels required when called: 4
   440 ;; This function calls:
   441 ;;		_LED_TURN_OFF
   442 ;;		_LED_TURN_ON
   443 ;;		___lwdiv
   444 ;;		___lwmod
   445 ;;		_application_intailize
   446 ;;		_button_read
   447 ;;		_gpio_pin_write_logic
   448 ;;		_seven_segment_write_number
   449 ;; This function is called by:
   450 ;;		Startup code after reset
   451 ;; This function uses a non-reentrant model
   452 ;;
   453                           
   454                           	psect	text0
   455   001002                     __ptext0:
   456                           	callstack 0
   457   001002                     _main:
   458                           	callstack 27
   459   001002                     
   460                           ;applicatin.c: 99:     application_intailize();
   461   001002  EC3E  F00C         	call	_application_intailize	;wreg free
   462   001006                     l1555:
   463   001006  0E1F               	movlw	low _segment_1
   464   001008  6E41               	movwf	seven_segment_write_number@segment^0,c
   465   00100A  C047  F03C         	movff	_number,___lwmod@dividend
   466   00100E  C048  F03D         	movff	_number+1,___lwmod@dividend+1
   467   001012  0E00               	movlw	0
   468   001014  6E3F               	movwf	(___lwmod@divisor+1)^0,c
   469   001016  0E0A               	movlw	10
   470   001018  6E3E               	movwf	___lwmod@divisor^0,c
   471   00101A  ECE1  F00B         	call	___lwmod	;wreg free
   472   00101E  503C               	movf	?___lwmod^0,w,c
   473   001020  6E42               	movwf	seven_segment_write_number@number^0,c
   474   001022  ECBE  F00A         	call	_seven_segment_write_number	;wreg free
   475   001026  0E34               	movlw	low _seg_en_1
   476   001028  6E35               	movwf	gpio_pin_write_logic@pin_config^0,c
   477   00102A  0E01               	movlw	1
   478   00102C  6E36               	movwf	gpio_pin_write_logic@logic^0,c
   479   00102E  EC90  F009         	call	_gpio_pin_write_logic	;wreg free
   480   001032                     
   481                           ;applicatin.c: 109:     _delay((unsigned long)((5)*(8000000/4000.0)));
   482   001032  0E0D               	movlw	13
   483   001034  6E44               	movwf	??_main^0,c
   484   001036  0EFC               	movlw	252
   485   001038                     u1037:
   486   001038  2EE8               	decfsz	wreg,f,c
   487   00103A  D7FE               	bra	u1037
   488   00103C  2E44               	decfsz	??_main^0,f,c
   489   00103E  D7FC               	bra	u1037
   490   001040  0E34               	movlw	low _seg_en_1
   491   001042  6E35               	movwf	gpio_pin_write_logic@pin_config^0,c
   492   001044  0E00               	movlw	0
   493   001046  6E36               	movwf	gpio_pin_write_logic@logic^0,c
   494   001048  EC90  F009         	call	_gpio_pin_write_logic	;wreg free
   495   00104C  0E1F               	movlw	low _segment_1
   496   00104E  6E41               	movwf	seven_segment_write_number@segment^0,c
   497   001050  0E00               	movlw	0
   498   001052  6E38               	movwf	(___lwdiv@divisor+1)^0,c
   499   001054  0E0A               	movlw	10
   500   001056  6E37               	movwf	___lwdiv@divisor^0,c
   501   001058  C047  F035         	movff	_number,___lwdiv@dividend
   502   00105C  C048  F036         	movff	_number+1,___lwdiv@dividend+1
   503   001060  ECFB  F00A         	call	___lwdiv	;wreg free
   504   001064  C035  F03C         	movff	?___lwdiv,___lwmod@dividend
   505   001068  C036  F03D         	movff	?___lwdiv+1,___lwmod@dividend+1
   506   00106C  0E00               	movlw	0
   507   00106E  6E3F               	movwf	(___lwmod@divisor+1)^0,c
   508   001070  0E0A               	movlw	10
   509   001072  6E3E               	movwf	___lwmod@divisor^0,c
   510   001074  ECE1  F00B         	call	___lwmod	;wreg free
   511   001078  503C               	movf	?___lwmod^0,w,c
   512   00107A  6E42               	movwf	seven_segment_write_number@number^0,c
   513   00107C  ECBE  F00A         	call	_seven_segment_write_number	;wreg free
   514   001080  0E33               	movlw	low _seg_en_2
   515   001082  6E35               	movwf	gpio_pin_write_logic@pin_config^0,c
   516   001084  0E01               	movlw	1
   517   001086  6E36               	movwf	gpio_pin_write_logic@logic^0,c
   518   001088  EC90  F009         	call	_gpio_pin_write_logic	;wreg free
   519   00108C                     
   520                           ;applicatin.c: 114:     _delay((unsigned long)((5)*(8000000/4000.0)));
   521   00108C  0E0D               	movlw	13
   522   00108E  6E44               	movwf	??_main^0,c
   523   001090  0EFC               	movlw	252
   524   001092                     u1047:
   525   001092  2EE8               	decfsz	wreg,f,c
   526   001094  D7FE               	bra	u1047
   527   001096  2E44               	decfsz	??_main^0,f,c
   528   001098  D7FC               	bra	u1047
   529   00109A  0E33               	movlw	low _seg_en_2
   530   00109C  6E35               	movwf	gpio_pin_write_logic@pin_config^0,c
   531   00109E  0E00               	movlw	0
   532   0010A0  6E36               	movwf	gpio_pin_write_logic@logic^0,c
   533   0010A2  EC90  F009         	call	_gpio_pin_write_logic	;wreg free
   534   0010A6  0E1F               	movlw	low _segment_1
   535   0010A8  6E41               	movwf	seven_segment_write_number@segment^0,c
   536   0010AA  0E00               	movlw	0
   537   0010AC  6E38               	movwf	(___lwdiv@divisor+1)^0,c
   538   0010AE  0E64               	movlw	100
   539   0010B0  6E37               	movwf	___lwdiv@divisor^0,c
   540   0010B2  C047  F035         	movff	_number,___lwdiv@dividend
   541   0010B6  C048  F036         	movff	_number+1,___lwdiv@dividend+1
   542   0010BA  ECFB  F00A         	call	___lwdiv	;wreg free
   543   0010BE  C035  F03C         	movff	?___lwdiv,___lwmod@dividend
   544   0010C2  C036  F03D         	movff	?___lwdiv+1,___lwmod@dividend+1
   545   0010C6  0E00               	movlw	0
   546   0010C8  6E3F               	movwf	(___lwmod@divisor+1)^0,c
   547   0010CA  0E0A               	movlw	10
   548   0010CC  6E3E               	movwf	___lwmod@divisor^0,c
   549   0010CE  ECE1  F00B         	call	___lwmod	;wreg free
   550   0010D2  503C               	movf	?___lwmod^0,w,c
   551   0010D4  6E42               	movwf	seven_segment_write_number@number^0,c
   552   0010D6  ECBE  F00A         	call	_seven_segment_write_number	;wreg free
   553   0010DA  0E32               	movlw	low _seg_en_3
   554   0010DC  6E35               	movwf	gpio_pin_write_logic@pin_config^0,c
   555   0010DE  0E01               	movlw	1
   556   0010E0  6E36               	movwf	gpio_pin_write_logic@logic^0,c
   557   0010E2  EC90  F009         	call	_gpio_pin_write_logic	;wreg free
   558   0010E6                     
   559                           ;applicatin.c: 119:     _delay((unsigned long)((5)*(8000000/4000.0)));
   560   0010E6  0E0D               	movlw	13
   561   0010E8  6E44               	movwf	??_main^0,c
   562   0010EA  0EFC               	movlw	252
   563   0010EC                     u1057:
   564   0010EC  2EE8               	decfsz	wreg,f,c
   565   0010EE  D7FE               	bra	u1057
   566   0010F0  2E44               	decfsz	??_main^0,f,c
   567   0010F2  D7FC               	bra	u1057
   568   0010F4  0E32               	movlw	low _seg_en_3
   569   0010F6  6E35               	movwf	gpio_pin_write_logic@pin_config^0,c
   570   0010F8  0E00               	movlw	0
   571   0010FA  6E36               	movwf	gpio_pin_write_logic@logic^0,c
   572   0010FC  EC90  F009         	call	_gpio_pin_write_logic	;wreg free
   573   001100  0E1F               	movlw	low _segment_1
   574   001102  6E41               	movwf	seven_segment_write_number@segment^0,c
   575   001104  0E03               	movlw	3
   576   001106  6E38               	movwf	(___lwdiv@divisor+1)^0,c
   577   001108  0EE8               	movlw	232
   578   00110A  6E37               	movwf	___lwdiv@divisor^0,c
   579   00110C  C047  F035         	movff	_number,___lwdiv@dividend
   580   001110  C048  F036         	movff	_number+1,___lwdiv@dividend+1
   581   001114  ECFB  F00A         	call	___lwdiv	;wreg free
   582   001118  C035  F03C         	movff	?___lwdiv,___lwmod@dividend
   583   00111C  C036  F03D         	movff	?___lwdiv+1,___lwmod@dividend+1
   584   001120  0E00               	movlw	0
   585   001122  6E3F               	movwf	(___lwmod@divisor+1)^0,c
   586   001124  0E0A               	movlw	10
   587   001126  6E3E               	movwf	___lwmod@divisor^0,c
   588   001128  ECE1  F00B         	call	___lwmod	;wreg free
   589   00112C  503C               	movf	?___lwmod^0,w,c
   590   00112E  6E42               	movwf	seven_segment_write_number@number^0,c
   591   001130  ECBE  F00A         	call	_seven_segment_write_number	;wreg free
   592   001134  0E31               	movlw	low _seg_en_4
   593   001136  6E35               	movwf	gpio_pin_write_logic@pin_config^0,c
   594   001138  0E01               	movlw	1
   595   00113A  6E36               	movwf	gpio_pin_write_logic@logic^0,c
   596   00113C  EC90  F009         	call	_gpio_pin_write_logic	;wreg free
   597   001140                     
   598                           ;applicatin.c: 124:     _delay((unsigned long)((5)*(8000000/4000.0)));
   599   001140  0E0D               	movlw	13
   600   001142  6E44               	movwf	??_main^0,c
   601   001144  0EFC               	movlw	252
   602   001146                     u1067:
   603   001146  2EE8               	decfsz	wreg,f,c
   604   001148  D7FE               	bra	u1067
   605   00114A  2E44               	decfsz	??_main^0,f,c
   606   00114C  D7FC               	bra	u1067
   607   00114E  0E31               	movlw	low _seg_en_4
   608   001150  6E35               	movwf	gpio_pin_write_logic@pin_config^0,c
   609   001152  0E00               	movlw	0
   610   001154  6E36               	movwf	gpio_pin_write_logic@logic^0,c
   611   001156  EC90  F009         	call	_gpio_pin_write_logic	;wreg free
   612   00115A  0E27               	movlw	low _btn_reset
   613   00115C  6E3B               	movwf	button_read@btn^0,c
   614   00115E  0E2E               	movlw	low _btn_reset_st
   615   001160  6E3C               	movwf	button_read@btn_st^0,c
   616   001162  EC18  F00A         	call	_button_read	;wreg free
   617   001166                     
   618                           ;applicatin.c: 134:     if (btn_reset_st == BUTTON_PRESSED){
   619   001166  502E               	movf	_btn_reset_st^0,w,c
   620   001168  A4D8               	btfss	status,2,c
   621   00116A  EFB9  F008         	goto	u971
   622   00116E  EFBB  F008         	goto	u970
   623   001172                     u971:
   624   001172  EFBF  F008         	goto	l1593
   625   001176                     u970:
   626   001176                     
   627                           ;applicatin.c: 135:             number = 0;
   628   001176  0E00               	movlw	0
   629   001178  6E48               	movwf	(_number+1)^0,c
   630   00117A  0E00               	movlw	0
   631   00117C  6E47               	movwf	_number^0,c
   632   00117E                     l1593:
   633   00117E  0E2A               	movlw	low _btn_count
   634   001180  6E3B               	movwf	button_read@btn^0,c
   635   001182  0E2F               	movlw	low _btn_count_st
   636   001184  6E3C               	movwf	button_read@btn_st^0,c
   637   001186  EC18  F00A         	call	_button_read	;wreg free
   638   00118A                     
   639                           ;applicatin.c: 141:     if ( (btn_count_st == BUTTON_PRESSED) && (VAR ==0)){
   640   00118A  502F               	movf	_btn_count_st^0,w,c
   641   00118C  A4D8               	btfss	status,2,c
   642   00118E  EFCB  F008         	goto	u981
   643   001192  EFCD  F008         	goto	u980
   644   001196                     u981:
   645   001196  EFD9  F008         	goto	l1603
   646   00119A                     u980:
   647   00119A  5049               	movf	_VAR^0,w,c
   648   00119C  A4D8               	btfss	status,2,c
   649   00119E  EFD3  F008         	goto	u991
   650   0011A2  EFD5  F008         	goto	u990
   651   0011A6                     u991:
   652   0011A6  EFD9  F008         	goto	l1603
   653   0011AA                     u990:
   654   0011AA                     
   655                           ;applicatin.c: 142:             VAR = 1;
   656   0011AA  0E01               	movlw	1
   657   0011AC  6E49               	movwf	_VAR^0,c
   658   0011AE                     
   659                           ;applicatin.c: 143:             number++;
   660   0011AE  4A47               	infsnz	_number^0,f,c
   661   0011B0  2A48               	incf	(_number+1)^0,f,c
   662   0011B2                     l1603:
   663                           
   664                           ;applicatin.c: 146:     if((btn_count_st ==BUTTON_RELEASED)&& (VAR ==1) ){
   665   0011B2  042F               	decf	_btn_count_st^0,w,c
   666   0011B4  A4D8               	btfss	status,2,c
   667   0011B6  EFDF  F008         	goto	u1001
   668   0011BA  EFE1  F008         	goto	u1000
   669   0011BE                     u1001:
   670   0011BE  EFEB  F008         	goto	l1609
   671   0011C2                     u1000:
   672   0011C2  0449               	decf	_VAR^0,w,c
   673   0011C4  A4D8               	btfss	status,2,c
   674   0011C6  EFE7  F008         	goto	u1011
   675   0011CA  EFE9  F008         	goto	u1010
   676   0011CE                     u1011:
   677   0011CE  EFEB  F008         	goto	l1609
   678   0011D2                     u1010:
   679   0011D2                     
   680                           ;applicatin.c: 147:         VAR = 0;
   681   0011D2  0E00               	movlw	0
   682   0011D4  6E49               	movwf	_VAR^0,c
   683   0011D6                     l1609:
   684   0011D6  0E24               	movlw	low _btn_led
   685   0011D8  6E3B               	movwf	button_read@btn^0,c
   686   0011DA  0E2D               	movlw	low _btn_led_st
   687   0011DC  6E3C               	movwf	button_read@btn_st^0,c
   688   0011DE  EC18  F00A         	call	_button_read	;wreg free
   689   0011E2                     
   690                           ;applicatin.c: 153:     if (btn_led_st == BUTTON_PRESSED){
   691   0011E2  502D               	movf	_btn_led_st^0,w,c
   692   0011E4  A4D8               	btfss	status,2,c
   693   0011E6  EFF7  F008         	goto	u1021
   694   0011EA  EFF9  F008         	goto	u1020
   695   0011EE                     u1021:
   696   0011EE  EFFF  F008         	goto	l1615
   697   0011F2                     u1020:
   698   0011F2  0E30               	movlw	low _led
   699   0011F4  6E3D               	movwf	LED_TURN_ON@led^0,c
   700   0011F6  EC35  F00B         	call	_LED_TURN_ON	;wreg free
   701                           
   702                           ;applicatin.c: 156:     }
   703   0011FA  EF03  F008         	goto	l1555
   704   0011FE                     l1615:
   705   0011FE  0E30               	movlw	low _led
   706   001200  6E3D               	movwf	LED_TURN_OFF@led^0,c
   707   001202  EC6F  F00B         	call	_LED_TURN_OFF	;wreg free
   708   001206  EF03  F008         	goto	l1555
   709   00120A  EF00  F000         	goto	start
   710   00120E                     __end_of_main:
   711                           	callstack 0
   712                           
   713 ;; *************** function _seven_segment_write_number *****************
   714 ;; Defined at:
   715 ;;		line 31 in file "ECU_layer/7_segment/ecu_seven_segment.c"
   716 ;; Parameters:    Size  Location     Type
   717 ;;  segment         1   12[COMRAM] PTR const struct .
   718 ;;		 -> segment_1(5), 
   719 ;;  number          1   13[COMRAM] unsigned char 
   720 ;; Auto vars:     Size  Location     Type
   721 ;;  ret             1   14[COMRAM] unsigned char 
   722 ;; Return value:  Size  Location     Type
   723 ;;                  1    wreg      unsigned char 
   724 ;; Registers used:
   725 ;;		wreg, fsr2l, fsr2h, status,2, status,0, prodl, prodh, cstack
   726 ;; Tracked objects:
   727 ;;		On entry : 0/0
   728 ;;		On exit  : 0/0
   729 ;;		Unchanged: 0/0
   730 ;; Data sizes:     COMRAM   BANK0   BANK1   BANK2   BANK3   BANK4   BANK5   BANK6   BANK7   BANK8   BANK9  BANK10  BANK1
      +1  BANK12  BANK13  BANK14  BANK15
   731 ;;      Params:         2       0       0       0       0       0       0       0       0       0       0       0       
      +0       0       0       0       0
   732 ;;      Locals:         1       0       0       0       0       0       0       0       0       0       0       0       
      +0       0       0       0       0
   733 ;;      Temps:          0       0       0       0       0       0       0       0       0       0       0       0       
      +0       0       0       0       0
   734 ;;      Totals:         3       0       0       0       0       0       0       0       0       0       0       0       
      +0       0       0       0       0
   735 ;;Total ram usage:        3 bytes
   736 ;; Hardware stack levels used: 1
   737 ;; Hardware stack levels required when called: 1
   738 ;; This function calls:
   739 ;;		_gpio_pin_write_logic
   740 ;; This function is called by:
   741 ;;		_main
   742 ;; This function uses a non-reentrant model
   743 ;;
   744                           
   745                           	psect	text1
   746   00157C                     __ptext1:
   747                           	callstack 0
   748   00157C                     _seven_segment_write_number:
   749                           	callstack 29
   750   00157C                     
   751                           ;ECU_layer/7_segment/ecu_seven_segment.c: 34:     if( (((void*)0) == segment) && (number
      +                           > 9) ){
   752   00157C  5041               	movf	seven_segment_write_number@segment^0,w,c
   753   00157E  A4D8               	btfss	status,2,c
   754   001580  EFC4  F00A         	goto	u791
   755   001584  EFC6  F00A         	goto	u790
   756   001588                     u791:
   757   001588  EFD2  F00A         	goto	l1427
   758   00158C                     u790:
   759   00158C  0E09               	movlw	9
   760   00158E  6442               	cpfsgt	seven_segment_write_number@number^0,c
   761   001590  EFCC  F00A         	goto	u801
   762   001594  EFCE  F00A         	goto	u800
   763   001598                     u801:
   764   001598  EFD2  F00A         	goto	l1427
   765   00159C                     u800:
   766   00159C                     
   767                           ;ECU_layer/7_segment/ecu_seven_segment.c: 35:         ret = (Std_ReturnType)0X00;
   768   00159C  0E00               	movlw	0
   769   00159E  6E43               	movwf	seven_segment_write_number@ret^0,c
   770                           
   771                           ;ECU_layer/7_segment/ecu_seven_segment.c: 36:     }
   772   0015A0  EFF9  F00A         	goto	l1429
   773   0015A4                     l1427:
   774                           
   775                           ;ECU_layer/7_segment/ecu_seven_segment.c: 38:         ret = gpio_pin_write_logic(&(segme
      +                          nt->segment_pins[0]) , number & 0x01 );
   776   0015A4  C041  F035         	movff	seven_segment_write_number@segment,gpio_pin_write_logic@pin_config
   777   0015A8  5042               	movf	seven_segment_write_number@number^0,w,c
   778   0015AA  0B01               	andlw	1
   779   0015AC  6E36               	movwf	gpio_pin_write_logic@logic^0,c
   780   0015AE  EC90  F009         	call	_gpio_pin_write_logic	;wreg free
   781   0015B2  6E43               	movwf	seven_segment_write_number@ret^0,c
   782                           
   783                           ;ECU_layer/7_segment/ecu_seven_segment.c: 39:         ret = gpio_pin_write_logic(&(segme
      +                          nt->segment_pins[1]) , (number>>1) & 0x01 );
   784   0015B4  2841               	incf	seven_segment_write_number@segment^0,w,c
   785   0015B6  6E35               	movwf	gpio_pin_write_logic@pin_config^0,c
   786   0015B8  90D8               	bcf	status,0,c
   787   0015BA  3042               	rrcf	seven_segment_write_number@number^0,w,c
   788   0015BC  0B01               	andlw	1
   789   0015BE  6E36               	movwf	gpio_pin_write_logic@logic^0,c
   790   0015C0  EC90  F009         	call	_gpio_pin_write_logic	;wreg free
   791   0015C4  6E43               	movwf	seven_segment_write_number@ret^0,c
   792                           
   793                           ;ECU_layer/7_segment/ecu_seven_segment.c: 40:         ret = gpio_pin_write_logic(&(segme
      +                          nt->segment_pins[2]) , (number>>2) & 0x01 );
   794   0015C6  5041               	movf	seven_segment_write_number@segment^0,w,c
   795   0015C8  0F02               	addlw	2
   796   0015CA  6E35               	movwf	gpio_pin_write_logic@pin_config^0,c
   797   0015CC  4042               	rrncf	seven_segment_write_number@number^0,w,c
   798   0015CE  42E8               	rrncf	wreg,f,c
   799   0015D0  0B3F               	andlw	63
   800   0015D2  0B01               	andlw	1
   801   0015D4  6E36               	movwf	gpio_pin_write_logic@logic^0,c
   802   0015D6  EC90  F009         	call	_gpio_pin_write_logic	;wreg free
   803   0015DA  6E43               	movwf	seven_segment_write_number@ret^0,c
   804                           
   805                           ;ECU_layer/7_segment/ecu_seven_segment.c: 41:         ret = gpio_pin_write_logic(&(segme
      +                          nt->segment_pins[3]) , (number>>3) & 0x01 );
   806   0015DC  5041               	movf	seven_segment_write_number@segment^0,w,c
   807   0015DE  0F03               	addlw	3
   808   0015E0  6E35               	movwf	gpio_pin_write_logic@pin_config^0,c
   809   0015E2  3842               	swapf	seven_segment_write_number@number^0,w,c
   810   0015E4  46E8               	rlncf	wreg,f,c
   811   0015E6  0B1F               	andlw	31
   812   0015E8  0B01               	andlw	1
   813   0015EA  6E36               	movwf	gpio_pin_write_logic@logic^0,c
   814   0015EC  EC90  F009         	call	_gpio_pin_write_logic	;wreg free
   815   0015F0  6E43               	movwf	seven_segment_write_number@ret^0,c
   816   0015F2                     l1429:
   817                           
   818                           ;ECU_layer/7_segment/ecu_seven_segment.c: 46:     return ret;
   819   0015F2  5043               	movf	seven_segment_write_number@ret^0,w,c
   820   0015F4  0012               	return		;funcret
   821   0015F6                     __end_of_seven_segment_write_number:
   822                           	callstack 0
   823                           
   824 ;; *************** function _button_read *****************
   825 ;; Defined at:
   826 ;;		line 36 in file "ECU_layer/BUTTOM/ecu_button.c"
   827 ;; Parameters:    Size  Location     Type
   828 ;;  btn             1    6[COMRAM] PTR const struct .
   829 ;;		 -> btn_led(3), btn_reset(3), btn_count(3), 
   830 ;;  btn_st          1    7[COMRAM] PTR enum E2874
   831 ;;		 -> btn_led_st(1), btn_count_st(1), btn_reset_st(1), 
   832 ;; Auto vars:     Size  Location     Type
   833 ;;  pin_logic_st    1   10[COMRAM] enum E2814
   834 ;;  ret             1    9[COMRAM] unsigned char 
   835 ;; Return value:  Size  Location     Type
   836 ;;                  1    wreg      unsigned char 
   837 ;; Registers used:
   838 ;;		wreg, fsr1l, fsr1h, fsr2l, fsr2h, status,2, status,0, prodl, prodh, cstack
   839 ;; Tracked objects:
   840 ;;		On entry : 0/0
   841 ;;		On exit  : 0/0
   842 ;;		Unchanged: 0/0
   843 ;; Data sizes:     COMRAM   BANK0   BANK1   BANK2   BANK3   BANK4   BANK5   BANK6   BANK7   BANK8   BANK9  BANK10  BANK1
      +1  BANK12  BANK13  BANK14  BANK15
   844 ;;      Params:         2       0       0       0       0       0       0       0       0       0       0       0       
      +0       0       0       0       0
   845 ;;      Locals:         2       0       0       0       0       0       0       0       0       0       0       0       
      +0       0       0       0       0
   846 ;;      Temps:          1       0       0       0       0       0       0       0       0       0       0       0       
      +0       0       0       0       0
   847 ;;      Totals:         5       0       0       0       0       0       0       0       0       0       0       0       
      +0       0       0       0       0
   848 ;;Total ram usage:        5 bytes
   849 ;; Hardware stack levels used: 1
   850 ;; Hardware stack levels required when called: 1
   851 ;; This function calls:
   852 ;;		_gpio_pin_read_logic
   853 ;; This function is called by:
   854 ;;		_main
   855 ;; This function uses a non-reentrant model
   856 ;;
   857                           
   858                           	psect	text2
   859   001430                     __ptext2:
   860                           	callstack 0
   861   001430                     _button_read:
   862                           	callstack 29
   863   001430                     
   864                           ;ECU_layer/BUTTOM/ecu_button.c: 38:      logic_t pin_logic_status = LOW;
   865   001430  0E00               	movlw	0
   866   001432  6E3F               	movwf	button_read@pin_logic_status^0,c
   867                           
   868                           ;ECU_layer/BUTTOM/ecu_button.c: 39:     if( (((void*)0) == btn) || (((void*)0) == btn_st
      +                          )){
   869   001434  503B               	movf	button_read@btn^0,w,c
   870   001436  B4D8               	btfsc	status,2,c
   871   001438  EF20  F00A         	goto	u811
   872   00143C  EF22  F00A         	goto	u810
   873   001440                     u811:
   874   001440  EF2A  F00A         	goto	l1437
   875   001444                     u810:
   876   001444  503C               	movf	button_read@btn_st^0,w,c
   877   001446  A4D8               	btfss	status,2,c
   878   001448  EF28  F00A         	goto	u821
   879   00144C  EF2A  F00A         	goto	u820
   880   001450                     u821:
   881   001450  EF2E  F00A         	goto	l1439
   882   001454                     u820:
   883   001454                     l1437:
   884                           
   885                           ;ECU_layer/BUTTOM/ecu_button.c: 40:         ret = (Std_ReturnType)0X00;
   886   001454  0E00               	movlw	0
   887   001456  6E3E               	movwf	button_read@ret^0,c
   888                           
   889                           ;ECU_layer/BUTTOM/ecu_button.c: 41:     }
   890   001458  EF6F  F00A         	goto	l29
   891   00145C                     l1439:
   892                           
   893                           ;ECU_layer/BUTTOM/ecu_button.c: 43:         gpio_pin_read_logic(&(btn->BUTTON_PIN), &pin
      +                          _logic_status);
   894   00145C  C03B  F035         	movff	button_read@btn,gpio_pin_read_logic@pin_config
   895   001460  0E3F               	movlw	low button_read@pin_logic_status
   896   001462  6E36               	movwf	gpio_pin_read_logic@logic^0,c
   897   001464  EC71  F00A         	call	_gpio_pin_read_logic	;wreg free
   898   001468                     
   899                           ;ECU_layer/BUTTOM/ecu_button.c: 44:         if(BUTTON_ACTIVE_HIGH == (btn->BUTTON_ACTIVE
      +                          )){
   900   001468  503B               	movf	button_read@btn^0,w,c
   901   00146A  6ED9               	movwf	fsr2l,c
   902   00146C  6ADA               	clrf	fsr2h,c
   903   00146E  0E02               	movlw	2
   904   001470  26D9               	addwf	fsr2l,f,c
   905   001472  50DF               	movf	indf2,w,c
   906   001474  A4D8               	btfss	status,2,c
   907   001476  EF3F  F00A         	goto	u831
   908   00147A  EF41  F00A         	goto	u830
   909   00147E                     u831:
   910   00147E  EF56  F00A         	goto	l1449
   911   001482                     u830:
   912   001482                     
   913                           ;ECU_layer/BUTTOM/ecu_button.c: 45:             if(HIGH == pin_logic_status){
   914   001482  043F               	decf	button_read@pin_logic_status^0,w,c
   915   001484  A4D8               	btfss	status,2,c
   916   001486  EF47  F00A         	goto	u841
   917   00148A  EF49  F00A         	goto	u840
   918   00148E                     u841:
   919   00148E  EF4F  F00A         	goto	l1447
   920   001492                     u840:
   921   001492                     l1445:
   922                           
   923                           ;ECU_layer/BUTTOM/ecu_button.c: 46:                 *btn_st = BUTTON_PRESSED;
   924   001492  503C               	movf	button_read@btn_st^0,w,c
   925   001494  6ED9               	movwf	fsr2l,c
   926   001496  6ADA               	clrf	fsr2h,c
   927   001498  6ADF               	clrf	indf2,c
   928                           
   929                           ;ECU_layer/BUTTOM/ecu_button.c: 47:             }
   930   00149A  EF6D  F00A         	goto	l1457
   931   00149E                     l1447:
   932                           
   933                           ;ECU_layer/BUTTOM/ecu_button.c: 49:                 *btn_st = BUTTON_RELEASED;
   934   00149E  503C               	movf	button_read@btn_st^0,w,c
   935   0014A0  6ED9               	movwf	fsr2l,c
   936   0014A2  6ADA               	clrf	fsr2h,c
   937   0014A4  0E01               	movlw	1
   938   0014A6  6EDF               	movwf	indf2,c
   939   0014A8  EF6D  F00A         	goto	l1457
   940   0014AC                     l1449:
   941   0014AC  503B               	movf	button_read@btn^0,w,c
   942   0014AE  6ED9               	movwf	fsr2l,c
   943   0014B0  6ADA               	clrf	fsr2h,c
   944   0014B2  0E02               	movlw	2
   945   0014B4  26D9               	addwf	fsr2l,f,c
   946   0014B6  04DE               	decf	postinc2,w,c
   947   0014B8  A4D8               	btfss	status,2,c
   948   0014BA  EF61  F00A         	goto	u851
   949   0014BE  EF63  F00A         	goto	u850
   950   0014C2                     u851:
   951   0014C2  EF6D  F00A         	goto	l1457
   952   0014C6                     u850:
   953   0014C6                     
   954                           ;ECU_layer/BUTTOM/ecu_button.c: 53:             if(HIGH == pin_logic_status){
   955   0014C6  043F               	decf	button_read@pin_logic_status^0,w,c
   956   0014C8  A4D8               	btfss	status,2,c
   957   0014CA  EF69  F00A         	goto	u861
   958   0014CE  EF6B  F00A         	goto	u860
   959   0014D2                     u861:
   960   0014D2  EF49  F00A         	goto	l1445
   961   0014D6                     u860:
   962   0014D6  EF4F  F00A         	goto	l1447
   963   0014DA                     l1457:
   964                           
   965                           ;ECU_layer/BUTTOM/ecu_button.c: 62:         ret = (Std_ReturnType)0X01;
   966   0014DA  0E01               	movlw	1
   967   0014DC  6E3E               	movwf	button_read@ret^0,c
   968   0014DE                     l29:
   969                           
   970                           ;ECU_layer/BUTTOM/ecu_button.c: 65:     return ret;
   971   0014DE  503E               	movf	button_read@ret^0,w,c
   972   0014E0  0012               	return		;funcret
   973   0014E2                     __end_of_button_read:
   974                           	callstack 0
   975                           
   976 ;; *************** function _gpio_pin_read_logic *****************
   977 ;; Defined at:
   978 ;;		line 100 in file "MCAL_Layer/GPIO/HAL_gpio.c"
   979 ;; Parameters:    Size  Location     Type
   980 ;;  pin_config      1    0[COMRAM] PTR const struct .
   981 ;;		 -> btn_led(3), btn_reset(3), btn_count(3), 
   982 ;;  logic           1    1[COMRAM] PTR enum E2814
   983 ;;		 -> button_read@pin_logic_status(1), 
   984 ;; Auto vars:     Size  Location     Type
   985 ;;  ret             1    0        unsigned char 
   986 ;; Return value:  Size  Location     Type
   987 ;;                  1    wreg      unsigned char 
   988 ;; Registers used:
   989 ;;		wreg, fsr1l, fsr1h, fsr2l, fsr2h, status,2, status,0, prodl, prodh
   990 ;; Tracked objects:
   991 ;;		On entry : 0/0
   992 ;;		On exit  : 0/0
   993 ;;		Unchanged: 0/0
   994 ;; Data sizes:     COMRAM   BANK0   BANK1   BANK2   BANK3   BANK4   BANK5   BANK6   BANK7   BANK8   BANK9  BANK10  BANK1
      +1  BANK12  BANK13  BANK14  BANK15
   995 ;;      Params:         2       0       0       0       0       0       0       0       0       0       0       0       
      +0       0       0       0       0
   996 ;;      Locals:         0       0       0       0       0       0       0       0       0       0       0       0       
      +0       0       0       0       0
   997 ;;      Temps:          4       0       0       0       0       0       0       0       0       0       0       0       
      +0       0       0       0       0
   998 ;;      Totals:         6       0       0       0       0       0       0       0       0       0       0       0       
      +0       0       0       0       0
   999 ;;Total ram usage:        6 bytes
  1000 ;; Hardware stack levels used: 1
  1001 ;; This function calls:
  1002 ;;		Nothing
  1003 ;; This function is called by:
  1004 ;;		_button_read
  1005 ;; This function uses a non-reentrant model
  1006 ;;
  1007                           
  1008                           	psect	text3
  1009   0014E2                     __ptext3:
  1010                           	callstack 0
  1011   0014E2                     _gpio_pin_read_logic:
  1012                           	callstack 29
  1013   0014E2                     
  1014                           ;MCAL_Layer/GPIO/HAL_gpio.c: 102:     if( ((void*)0) == pin_config || ((void*)0) == logi
      +                          c || pin_config->pin > 8 -1){
  1015   0014E2  5035               	movf	gpio_pin_read_logic@pin_config^0,w,c
  1016   0014E4  B4D8               	btfsc	status,2,c
  1017   0014E6  EF77  F00A         	goto	u731
  1018   0014EA  EF79  F00A         	goto	u730
  1019   0014EE                     u731:
  1020   0014EE  EF91  F00A         	goto	l1399
  1021   0014F2                     u730:
  1022   0014F2  5036               	movf	gpio_pin_read_logic@logic^0,w,c
  1023   0014F4  B4D8               	btfsc	status,2,c
  1024   0014F6  EF7F  F00A         	goto	u741
  1025   0014FA  EF81  F00A         	goto	u740
  1026   0014FE                     u741:
  1027   0014FE  EF91  F00A         	goto	l1399
  1028   001502                     u740:
  1029   001502  5035               	movf	gpio_pin_read_logic@pin_config^0,w,c
  1030   001504  6ED9               	movwf	fsr2l,c
  1031   001506  6ADA               	clrf	fsr2h,c
  1032   001508  30DF               	rrcf	223,w,c
  1033   00150A  32E8               	rrcf	wreg,f,c
  1034   00150C  32E8               	rrcf	wreg,f,c
  1035   00150E  0B07               	andlw	7
  1036   001510  6E37               	movwf	??_gpio_pin_read_logic^0,c
  1037   001512  0E07               	movlw	7
  1038   001514  6437               	cpfsgt	??_gpio_pin_read_logic^0,c
  1039   001516  EF8F  F00A         	goto	u751
  1040   00151A  EF91  F00A         	goto	u750
  1041   00151E                     u751:
  1042   00151E  EF93  F00A         	goto	l1401
  1043   001522                     u750:
  1044   001522                     l1399:
  1045                           
  1046                           ;MCAL_Layer/GPIO/HAL_gpio.c: 104:     }
  1047   001522  EFBD  F00A         	goto	l146
  1048   001526                     l1401:
  1049                           
  1050                           ;MCAL_Layer/GPIO/HAL_gpio.c: 106:         *logic = ((*port_regesters[pin_config->port] >
      +                          > pin_config->pin) & (uint8)1 );
  1051   001526  5036               	movf	gpio_pin_read_logic@logic^0,w,c
  1052   001528  6ED9               	movwf	fsr2l,c
  1053   00152A  6ADA               	clrf	fsr2h,c
  1054   00152C  5035               	movf	gpio_pin_read_logic@pin_config^0,w,c
  1055   00152E  6EE1               	movwf	fsr1l,c
  1056   001530  6AE2               	clrf	fsr1h,c
  1057   001532  30E7               	rrcf	231,w,c
  1058   001534  32E8               	rrcf	wreg,f,c
  1059   001536  32E8               	rrcf	wreg,f,c
  1060   001538  0B07               	andlw	7
  1061   00153A  6E37               	movwf	??_gpio_pin_read_logic^0,c
  1062   00153C  5035               	movf	gpio_pin_read_logic@pin_config^0,w,c
  1063   00153E  6EE1               	movwf	fsr1l,c
  1064   001540  6AE2               	clrf	fsr1h,c
  1065   001542  50E7               	movf	231,w,c
  1066   001544  0B07               	andlw	7
  1067   001546  0D02               	mullw	2
  1068   001548  50F3               	movf	243,w,c
  1069   00154A  0F01               	addlw	low _port_regesters
  1070   00154C  6EE1               	movwf	fsr1l,c
  1071   00154E  6AE2               	clrf	fsr1h,c
  1072   001550  CFE6 F038          	movff	postinc1,??_gpio_pin_read_logic+1
  1073   001554  CFE5 F039          	movff	postdec1,??_gpio_pin_read_logic+2
  1074   001558  C038  FFE1         	movff	??_gpio_pin_read_logic+1,fsr1l
  1075   00155C  C039  FFE2         	movff	??_gpio_pin_read_logic+2,fsr1h
  1076   001560  50E7               	movf	indf1,w,c
  1077   001562  6E3A               	movwf	(??_gpio_pin_read_logic+3)^0,c
  1078   001564  2A37               	incf	??_gpio_pin_read_logic^0,f,c
  1079   001566  EFB7  F00A         	goto	u764
  1080   00156A                     u765:
  1081   00156A  90D8               	bcf	status,0,c
  1082   00156C  323A               	rrcf	(??_gpio_pin_read_logic+3)^0,f,c
  1083   00156E                     u764:
  1084   00156E  2E37               	decfsz	??_gpio_pin_read_logic^0,f,c
  1085   001570  EFB5  F00A         	goto	u765
  1086   001574  503A               	movf	(??_gpio_pin_read_logic+3)^0,w,c
  1087   001576  0B01               	andlw	1
  1088   001578  6EDF               	movwf	indf2,c
  1089   00157A                     l146:
  1090   00157A  0012               	return		;funcret
  1091   00157C                     __end_of_gpio_pin_read_logic:
  1092                           	callstack 0
  1093                           
  1094 ;; *************** function _application_intailize *****************
  1095 ;; Defined at:
  1096 ;;		line 168 in file "applicatin.c"
  1097 ;; Parameters:    Size  Location     Type
  1098 ;;		None
  1099 ;; Auto vars:     Size  Location     Type
  1100 ;;  ret             1    0        unsigned char 
  1101 ;; Return value:  Size  Location     Type
  1102 ;;                  1    wreg      void 
  1103 ;; Registers used:
  1104 ;;		wreg, fsr2l, fsr2h, status,2, status,0, prodl, prodh, cstack
  1105 ;; Tracked objects:
  1106 ;;		On entry : 0/0
  1107 ;;		On exit  : 0/0
  1108 ;;		Unchanged: 0/0
  1109 ;; Data sizes:     COMRAM   BANK0   BANK1   BANK2   BANK3   BANK4   BANK5   BANK6   BANK7   BANK8   BANK9  BANK10  BANK1
      +1  BANK12  BANK13  BANK14  BANK15
  1110 ;;      Params:         0       0       0       0       0       0       0       0       0       0       0       0       
      +0       0       0       0       0
  1111 ;;      Locals:         0       0       0       0       0       0       0       0       0       0       0       0       
      +0       0       0       0       0
  1112 ;;      Temps:          0       0       0       0       0       0       0       0       0       0       0       0       
      +0       0       0       0       0
  1113 ;;      Totals:         0       0       0       0       0       0       0       0       0       0       0       0       
      +0       0       0       0       0
  1114 ;;Total ram usage:        0 bytes
  1115 ;; Hardware stack levels used: 1
  1116 ;; Hardware stack levels required when called: 3
  1117 ;; This function calls:
  1118 ;;		_LED_intailize
  1119 ;;		_button_initialize
  1120 ;;		_gpio_pin_intailize
  1121 ;;		_seven_segment_intailize
  1122 ;; This function is called by:
  1123 ;;		_main
  1124 ;; This function uses a non-reentrant model
  1125 ;;
  1126                           
  1127                           	psect	text4
  1128   00187C                     __ptext4:
  1129                           	callstack 0
  1130   00187C                     _application_intailize:
  1131                           	callstack 27
  1132   00187C  0E1F               	movlw	low _segment_1
  1133   00187E  6E3F               	movwf	seven_segment_intailize@segment^0,c
  1134   001880  EC63  F00C         	call	_seven_segment_intailize	;wreg free
  1135   001884  0E34               	movlw	low _seg_en_1
  1136   001886  6E3D               	movwf	gpio_pin_intailize@pin_config^0,c
  1137   001888  EC13  F00C         	call	_gpio_pin_intailize	;wreg free
  1138   00188C  0E33               	movlw	low _seg_en_2
  1139   00188E  6E3D               	movwf	gpio_pin_intailize@pin_config^0,c
  1140   001890  EC13  F00C         	call	_gpio_pin_intailize	;wreg free
  1141   001894  0E32               	movlw	low _seg_en_3
  1142   001896  6E3D               	movwf	gpio_pin_intailize@pin_config^0,c
  1143   001898  EC13  F00C         	call	_gpio_pin_intailize	;wreg free
  1144   00189C  0E31               	movlw	low _seg_en_4
  1145   00189E  6E3D               	movwf	gpio_pin_intailize@pin_config^0,c
  1146   0018A0  EC13  F00C         	call	_gpio_pin_intailize	;wreg free
  1147   0018A4  0E2A               	movlw	low _btn_count
  1148   0018A6  6E3C               	movwf	button_initialize@btn^0,c
  1149   0018A8  ECBC  F00C         	call	_button_initialize	;wreg free
  1150   0018AC  0E27               	movlw	low _btn_reset
  1151   0018AE  6E3C               	movwf	button_initialize@btn^0,c
  1152   0018B0  ECBC  F00C         	call	_button_initialize	;wreg free
  1153   0018B4  0E24               	movlw	low _btn_led
  1154   0018B6  6E3C               	movwf	button_initialize@btn^0,c
  1155   0018B8  ECBC  F00C         	call	_button_initialize	;wreg free
  1156   0018BC  0E30               	movlw	low _led
  1157   0018BE  6E3F               	movwf	LED_intailize@led^0,c
  1158   0018C0  ECA9  F00B         	call	_LED_intailize	;wreg free
  1159   0018C4  0012               	return		;funcret
  1160   0018C6                     __end_of_application_intailize:
  1161                           	callstack 0
  1162                           
  1163 ;; *************** function _seven_segment_intailize *****************
  1164 ;; Defined at:
  1165 ;;		line 10 in file "ECU_layer/7_segment/ecu_seven_segment.c"
  1166 ;; Parameters:    Size  Location     Type
  1167 ;;  segment         1   10[COMRAM] PTR const struct .
  1168 ;;		 -> segment_1(5), 
  1169 ;; Auto vars:     Size  Location     Type
  1170 ;;  ret             1   11[COMRAM] unsigned char 
  1171 ;; Return value:  Size  Location     Type
  1172 ;;                  1    wreg      unsigned char 
  1173 ;; Registers used:
  1174 ;;		wreg, fsr2l, fsr2h, status,2, status,0, prodl, prodh, cstack
  1175 ;; Tracked objects:
  1176 ;;		On entry : 0/0
  1177 ;;		On exit  : 0/0
  1178 ;;		Unchanged: 0/0
  1179 ;; Data sizes:     COMRAM   BANK0   BANK1   BANK2   BANK3   BANK4   BANK5   BANK6   BANK7   BANK8   BANK9  BANK10  BANK1
      +1  BANK12  BANK13  BANK14  BANK15
  1180 ;;      Params:         1       0       0       0       0       0       0       0       0       0       0       0       
      +0       0       0       0       0
  1181 ;;      Locals:         1       0       0       0       0       0       0       0       0       0       0       0       
      +0       0       0       0       0
  1182 ;;      Temps:          0       0       0       0       0       0       0       0       0       0       0       0       
      +0       0       0       0       0
  1183 ;;      Totals:         2       0       0       0       0       0       0       0       0       0       0       0       
      +0       0       0       0       0
  1184 ;;Total ram usage:        2 bytes
  1185 ;; Hardware stack levels used: 1
  1186 ;; Hardware stack levels required when called: 2
  1187 ;; This function calls:
  1188 ;;		_gpio_pin_intailize
  1189 ;; This function is called by:
  1190 ;;		_application_intailize
  1191 ;; This function uses a non-reentrant model
  1192 ;;
  1193                           
  1194                           	psect	text5
  1195   0018C6                     __ptext5:
  1196                           	callstack 0
  1197   0018C6                     _seven_segment_intailize:
  1198                           	callstack 27
  1199   0018C6                     
  1200                           ;ECU_layer/7_segment/ecu_seven_segment.c: 14:     if( ((void*)0) == segment ){
  1201   0018C6  503F               	movf	seven_segment_intailize@segment^0,w,c
  1202   0018C8  A4D8               	btfss	status,2,c
  1203   0018CA  EF69  F00C         	goto	u711
  1204   0018CE  EF6B  F00C         	goto	u710
  1205   0018D2                     u711:
  1206   0018D2  EF6F  F00C         	goto	l1375
  1207   0018D6                     u710:
  1208   0018D6                     
  1209                           ;ECU_layer/7_segment/ecu_seven_segment.c: 15:         ret = (Std_ReturnType)0X00;
  1210   0018D6  0E00               	movlw	0
  1211   0018D8  6E40               	movwf	seven_segment_intailize@ret^0,c
  1212                           
  1213                           ;ECU_layer/7_segment/ecu_seven_segment.c: 16:     }
  1214   0018DA  EF85  F00C         	goto	l1377
  1215   0018DE                     l1375:
  1216                           
  1217                           ;ECU_layer/7_segment/ecu_seven_segment.c: 18:         ret = gpio_pin_intailize(&(segment
      +                          ->segment_pins[0]));
  1218   0018DE  C03F  F03D         	movff	seven_segment_intailize@segment,gpio_pin_intailize@pin_config
  1219   0018E2  EC13  F00C         	call	_gpio_pin_intailize	;wreg free
  1220   0018E6  6E40               	movwf	seven_segment_intailize@ret^0,c
  1221                           
  1222                           ;ECU_layer/7_segment/ecu_seven_segment.c: 19:         ret = gpio_pin_intailize(&(segment
      +                          ->segment_pins[1]));
  1223   0018E8  283F               	incf	seven_segment_intailize@segment^0,w,c
  1224   0018EA  6E3D               	movwf	gpio_pin_intailize@pin_config^0,c
  1225   0018EC  EC13  F00C         	call	_gpio_pin_intailize	;wreg free
  1226   0018F0  6E40               	movwf	seven_segment_intailize@ret^0,c
  1227                           
  1228                           ;ECU_layer/7_segment/ecu_seven_segment.c: 20:         ret = gpio_pin_intailize(&(segment
      +                          ->segment_pins[2]));
  1229   0018F2  503F               	movf	seven_segment_intailize@segment^0,w,c
  1230   0018F4  0F02               	addlw	2
  1231   0018F6  6E3D               	movwf	gpio_pin_intailize@pin_config^0,c
  1232   0018F8  EC13  F00C         	call	_gpio_pin_intailize	;wreg free
  1233   0018FC  6E40               	movwf	seven_segment_intailize@ret^0,c
  1234                           
  1235                           ;ECU_layer/7_segment/ecu_seven_segment.c: 21:         ret = gpio_pin_intailize(&(segment
      +                          ->segment_pins[3]));
  1236   0018FE  503F               	movf	seven_segment_intailize@segment^0,w,c
  1237   001900  0F03               	addlw	3
  1238   001902  6E3D               	movwf	gpio_pin_intailize@pin_config^0,c
  1239   001904  EC13  F00C         	call	_gpio_pin_intailize	;wreg free
  1240   001908  6E40               	movwf	seven_segment_intailize@ret^0,c
  1241   00190A                     l1377:
  1242                           
  1243                           ;ECU_layer/7_segment/ecu_seven_segment.c: 24:     return ret;
  1244   00190A  5040               	movf	seven_segment_intailize@ret^0,w,c
  1245   00190C  0012               	return		;funcret
  1246   00190E                     __end_of_seven_segment_intailize:
  1247                           	callstack 0
  1248                           
  1249 ;; *************** function _button_initialize *****************
  1250 ;; Defined at:
  1251 ;;		line 16 in file "ECU_layer/BUTTOM/ecu_button.c"
  1252 ;; Parameters:    Size  Location     Type
  1253 ;;  btn             1    7[COMRAM] PTR const struct .
  1254 ;;		 -> btn_led(3), btn_reset(3), btn_count(3), 
  1255 ;; Auto vars:     Size  Location     Type
  1256 ;;  ret             1    8[COMRAM] unsigned char 
  1257 ;; Return value:  Size  Location     Type
  1258 ;;                  1    wreg      unsigned char 
  1259 ;; Registers used:
  1260 ;;		wreg, fsr2l, fsr2h, status,2, status,0, prodl, prodh, cstack
  1261 ;; Tracked objects:
  1262 ;;		On entry : 0/0
  1263 ;;		On exit  : 0/0
  1264 ;;		Unchanged: 0/0
  1265 ;; Data sizes:     COMRAM   BANK0   BANK1   BANK2   BANK3   BANK4   BANK5   BANK6   BANK7   BANK8   BANK9  BANK10  BANK1
      +1  BANK12  BANK13  BANK14  BANK15
  1266 ;;      Params:         1       0       0       0       0       0       0       0       0       0       0       0       
      +0       0       0       0       0
  1267 ;;      Locals:         1       0       0       0       0       0       0       0       0       0       0       0       
      +0       0       0       0       0
  1268 ;;      Temps:          0       0       0       0       0       0       0       0       0       0       0       0       
      +0       0       0       0       0
  1269 ;;      Totals:         2       0       0       0       0       0       0       0       0       0       0       0       
      +0       0       0       0       0
  1270 ;;Total ram usage:        2 bytes
  1271 ;; Hardware stack levels used: 1
  1272 ;; Hardware stack levels required when called: 1
  1273 ;; This function calls:
  1274 ;;		_gpio_pin_direction_intailize
  1275 ;; This function is called by:
  1276 ;;		_application_intailize
  1277 ;; This function uses a non-reentrant model
  1278 ;;
  1279                           
  1280                           	psect	text6
  1281   001978                     __ptext6:
  1282                           	callstack 0
  1283   001978                     _button_initialize:
  1284                           	callstack 28
  1285   001978                     
  1286                           ;ECU_layer/BUTTOM/ecu_button.c: 18:     if( ((void*)0) == btn ){
  1287   001978  503C               	movf	button_initialize@btn^0,w,c
  1288   00197A  A4D8               	btfss	status,2,c
  1289   00197C  EFC2  F00C         	goto	u721
  1290   001980  EFC4  F00C         	goto	u720
  1291   001984                     u721:
  1292   001984  EFC8  F00C         	goto	l1385
  1293   001988                     u720:
  1294   001988                     
  1295                           ;ECU_layer/BUTTOM/ecu_button.c: 19:         ret = (Std_ReturnType)0X00;
  1296   001988  0E00               	movlw	0
  1297   00198A  6E3D               	movwf	button_initialize@ret^0,c
  1298                           
  1299                           ;ECU_layer/BUTTOM/ecu_button.c: 20:     }
  1300   00198C  EFCE  F00C         	goto	l1389
  1301   001990                     l1385:
  1302                           
  1303                           ;ECU_layer/BUTTOM/ecu_button.c: 22:         gpio_pin_direction_intailize(&(btn->BUTTON_P
      +                          IN));
  1304   001990  C03C  F035         	movff	button_initialize@btn,gpio_pin_direction_intailize@pin_config
  1305   001994  EC07  F009         	call	_gpio_pin_direction_intailize	;wreg free
  1306   001998                     
  1307                           ;ECU_layer/BUTTOM/ecu_button.c: 23:         ret = (Std_ReturnType)0X01;
  1308   001998  0E01               	movlw	1
  1309   00199A  6E3D               	movwf	button_initialize@ret^0,c
  1310   00199C                     l1389:
  1311                           
  1312                           ;ECU_layer/BUTTOM/ecu_button.c: 26:     return ret;
  1313   00199C  503D               	movf	button_initialize@ret^0,w,c
  1314   00199E  0012               	return		;funcret
  1315   0019A0                     __end_of_button_initialize:
  1316                           	callstack 0
  1317                           
  1318 ;; *************** function _LED_intailize *****************
  1319 ;; Defined at:
  1320 ;;		line 15 in file "ECU_layer/LED/ecu_led.c"
  1321 ;; Parameters:    Size  Location     Type
  1322 ;;  led             1   10[COMRAM] PTR const struct .
  1323 ;;		 -> led(1), 
  1324 ;; Auto vars:     Size  Location     Type
  1325 ;;  pin_obj         1   13[COMRAM] struct .
  1326 ;;  ret             1   12[COMRAM] unsigned char 
  1327 ;; Return value:  Size  Location     Type
  1328 ;;                  1    wreg      unsigned char 
  1329 ;; Registers used:
  1330 ;;		wreg, fsr2l, fsr2h, status,2, status,0, prodl, prodh, cstack
  1331 ;; Tracked objects:
  1332 ;;		On entry : 0/0
  1333 ;;		On exit  : 0/0
  1334 ;;		Unchanged: 0/0
  1335 ;; Data sizes:     COMRAM   BANK0   BANK1   BANK2   BANK3   BANK4   BANK5   BANK6   BANK7   BANK8   BANK9  BANK10  BANK1
      +1  BANK12  BANK13  BANK14  BANK15
  1336 ;;      Params:         1       0       0       0       0       0       0       0       0       0       0       0       
      +0       0       0       0       0
  1337 ;;      Locals:         2       0       0       0       0       0       0       0       0       0       0       0       
      +0       0       0       0       0
  1338 ;;      Temps:          1       0       0       0       0       0       0       0       0       0       0       0       
      +0       0       0       0       0
  1339 ;;      Totals:         4       0       0       0       0       0       0       0       0       0       0       0       
      +0       0       0       0       0
  1340 ;;Total ram usage:        4 bytes
  1341 ;; Hardware stack levels used: 1
  1342 ;; Hardware stack levels required when called: 2
  1343 ;; This function calls:
  1344 ;;		_gpio_pin_intailize
  1345 ;; This function is called by:
  1346 ;;		_application_intailize
  1347 ;; This function uses a non-reentrant model
  1348 ;;
  1349                           
  1350                           	psect	text7
  1351   001752                     __ptext7:
  1352                           	callstack 0
  1353   001752                     _LED_intailize:
  1354                           	callstack 27
  1355   001752                     
  1356                           ;ECU_layer/LED/ecu_led.c: 16:     Std_ReturnType ret = (Std_ReturnType)0X01;
  1357   001752  0E01               	movlw	1
  1358   001754  6E41               	movwf	LED_intailize@ret^0,c
  1359                           
  1360                           ;ECU_layer/LED/ecu_led.c: 18:     if( ((void*)0) == led ){
  1361   001756  503F               	movf	LED_intailize@led^0,w,c
  1362   001758  A4D8               	btfss	status,2,c
  1363   00175A  EFB1  F00B         	goto	u771
  1364   00175E  EFB3  F00B         	goto	u770
  1365   001762                     u771:
  1366   001762  EFB7  F00B         	goto	l47
  1367   001766                     u770:
  1368   001766                     
  1369                           ;ECU_layer/LED/ecu_led.c: 19:         ret = (Std_ReturnType)0X00;
  1370   001766  0E00               	movlw	0
  1371   001768  6E41               	movwf	LED_intailize@ret^0,c
  1372                           
  1373                           ;ECU_layer/LED/ecu_led.c: 20:     }
  1374   00176A  EFDF  F00B         	goto	l1417
  1375   00176E                     l47:
  1376                           
  1377                           ;ECU_layer/LED/ecu_led.c: 22:         pin_config_t pin_obj =
  1378   00176E  C04E  F042         	movff	LED_intailize@F2894,LED_intailize@pin_obj
  1379   001772  503F               	movf	LED_intailize@led^0,w,c
  1380   001774  6ED9               	movwf	fsr2l,c
  1381   001776  6ADA               	clrf	fsr2h,c
  1382   001778  50DF               	movf	223,w,c
  1383   00177A  0B0F               	andlw	15
  1384   00177C  6E40               	movwf	??_LED_intailize^0,c
  1385   00177E  5042               	movf	LED_intailize@pin_obj^0,w,c
  1386   001780  1840               	xorwf	??_LED_intailize^0,w,c
  1387   001782  0BF8               	andlw	-8
  1388   001784  1840               	xorwf	??_LED_intailize^0,w,c
  1389   001786  6E42               	movwf	LED_intailize@pin_obj^0,c
  1390   001788  503F               	movf	LED_intailize@led^0,w,c
  1391   00178A  6ED9               	movwf	fsr2l,c
  1392   00178C  6ADA               	clrf	fsr2h,c
  1393   00178E  38DF               	swapf	223,w,c
  1394   001790  0B07               	andlw	7
  1395   001792  6E40               	movwf	??_LED_intailize^0,c
  1396   001794  4640               	rlncf	??_LED_intailize^0,f,c
  1397   001796  4640               	rlncf	??_LED_intailize^0,f,c
  1398   001798  4640               	rlncf	??_LED_intailize^0,f,c
  1399   00179A  5042               	movf	LED_intailize@pin_obj^0,w,c
  1400   00179C  1840               	xorwf	??_LED_intailize^0,w,c
  1401   00179E  0BC7               	andlw	-57
  1402   0017A0  1840               	xorwf	??_LED_intailize^0,w,c
  1403   0017A2  6E42               	movwf	LED_intailize@pin_obj^0,c
  1404   0017A4  9C42               	bcf	LED_intailize@pin_obj^0,6,c
  1405   0017A6  503F               	movf	LED_intailize@led^0,w,c
  1406   0017A8  6ED9               	movwf	fsr2l,c
  1407   0017AA  6ADA               	clrf	fsr2h,c
  1408   0017AC  AEDF               	btfss	indf2,7,c
  1409   0017AE  D002               	bra	u785
  1410   0017B0  8E42               	bsf	LED_intailize@pin_obj^0,7,c
  1411   0017B2  D001               	bra	u787
  1412   0017B4                     u785:
  1413   0017B4  9E42               	bcf	LED_intailize@pin_obj^0,7,c
  1414   0017B6                     u787:
  1415   0017B6                     
  1416                           ;ECU_layer/LED/ecu_led.c: 27:         gpio_pin_intailize(&pin_obj);
  1417   0017B6  0E42               	movlw	low LED_intailize@pin_obj
  1418   0017B8  6E3D               	movwf	gpio_pin_intailize@pin_config^0,c
  1419   0017BA  EC13  F00C         	call	_gpio_pin_intailize	;wreg free
  1420   0017BE                     l1417:
  1421                           
  1422                           ;ECU_layer/LED/ecu_led.c: 30:     return ret;
  1423   0017BE  5041               	movf	LED_intailize@ret^0,w,c
  1424   0017C0  0012               	return		;funcret
  1425   0017C2                     __end_of_LED_intailize:
  1426                           	callstack 0
  1427                           
  1428 ;; *************** function _gpio_pin_intailize *****************
  1429 ;; Defined at:
  1430 ;;		line 133 in file "MCAL_Layer/GPIO/HAL_gpio.c"
  1431 ;; Parameters:    Size  Location     Type
  1432 ;;  pin_config      1    8[COMRAM] PTR const struct .
  1433 ;;		 -> seg_en_4(1), seg_en_3(1), seg_en_2(1), seg_en_1(1), 
  1434 ;;		 -> segment_1$segment_pins(4), segment_1(5), LED_intailize@pin_obj(1), 
  1435 ;; Auto vars:     Size  Location     Type
  1436 ;;  ret             1    9[COMRAM] unsigned char 
  1437 ;; Return value:  Size  Location     Type
  1438 ;;                  1    wreg      unsigned char 
  1439 ;; Registers used:
  1440 ;;		wreg, fsr2l, fsr2h, status,2, status,0, prodl, prodh, cstack
  1441 ;; Tracked objects:
  1442 ;;		On entry : 0/0
  1443 ;;		On exit  : 0/0
  1444 ;;		Unchanged: 0/0
  1445 ;; Data sizes:     COMRAM   BANK0   BANK1   BANK2   BANK3   BANK4   BANK5   BANK6   BANK7   BANK8   BANK9  BANK10  BANK1
      +1  BANK12  BANK13  BANK14  BANK15
  1446 ;;      Params:         1       0       0       0       0       0       0       0       0       0       0       0       
      +0       0       0       0       0
  1447 ;;      Locals:         1       0       0       0       0       0       0       0       0       0       0       0       
      +0       0       0       0       0
  1448 ;;      Temps:          0       0       0       0       0       0       0       0       0       0       0       0       
      +0       0       0       0       0
  1449 ;;      Totals:         2       0       0       0       0       0       0       0       0       0       0       0       
      +0       0       0       0       0
  1450 ;;Total ram usage:        2 bytes
  1451 ;; Hardware stack levels used: 1
  1452 ;; Hardware stack levels required when called: 1
  1453 ;; This function calls:
  1454 ;;		_gpio_pin_direction_intailize
  1455 ;;		_gpio_pin_write_logic
  1456 ;; This function is called by:
  1457 ;;		_seven_segment_intailize
  1458 ;;		_LED_intailize
  1459 ;;		_application_intailize
  1460 ;; This function uses a non-reentrant model
  1461 ;;
  1462                           
  1463                           	psect	text8
  1464   001826                     __ptext8:
  1465                           	callstack 0
  1466   001826                     _gpio_pin_intailize:
  1467                           	callstack 27
  1468   001826                     
  1469                           ;MCAL_Layer/GPIO/HAL_gpio.c: 135:     if( ((void*)0) == pin_config || pin_config->pin ==
      +                           8 -1){
  1470   001826  503D               	movf	gpio_pin_intailize@pin_config^0,w,c
  1471   001828  B4D8               	btfsc	status,2,c
  1472   00182A  EF19  F00C         	goto	u691
  1473   00182E  EF1B  F00C         	goto	u690
  1474   001832                     u691:
  1475   001832  EF2A  F00C         	goto	l1367
  1476   001836                     u690:
  1477   001836  503D               	movf	gpio_pin_intailize@pin_config^0,w,c
  1478   001838  6ED9               	movwf	fsr2l,c
  1479   00183A  6ADA               	clrf	fsr2h,c
  1480   00183C  30DF               	rrcf	223,w,c
  1481   00183E  32E8               	rrcf	wreg,f,c
  1482   001840  32E8               	rrcf	wreg,f,c
  1483   001842  0B07               	andlw	7
  1484   001844  0A07               	xorlw	7
  1485   001846  A4D8               	btfss	status,2,c
  1486   001848  EF28  F00C         	goto	u701
  1487   00184C  EF2A  F00C         	goto	u700
  1488   001850                     u701:
  1489   001850  EF2C  F00C         	goto	l1369
  1490   001854                     u700:
  1491   001854                     l1367:
  1492                           
  1493                           ;MCAL_Layer/GPIO/HAL_gpio.c: 137:     }
  1494   001854  EF3D  F00C         	goto	l160
  1495   001858                     l1369:
  1496                           
  1497                           ;MCAL_Layer/GPIO/HAL_gpio.c: 139:         ret =gpio_pin_direction_intailize(pin_config);
  1498   001858  C03D  F035         	movff	gpio_pin_intailize@pin_config,gpio_pin_direction_intailize@pin_config
  1499   00185C  EC07  F009         	call	_gpio_pin_direction_intailize	;wreg free
  1500   001860  6E3E               	movwf	gpio_pin_intailize@ret^0,c
  1501                           
  1502                           ;MCAL_Layer/GPIO/HAL_gpio.c: 140:         ret =gpio_pin_write_logic(pin_config,pin_confi
      +                          g->logic);
  1503   001862  C03D  F035         	movff	gpio_pin_intailize@pin_config,gpio_pin_write_logic@pin_config
  1504   001866  503D               	movf	gpio_pin_intailize@pin_config^0,w,c
  1505   001868  6ED9               	movwf	fsr2l,c
  1506   00186A  6ADA               	clrf	fsr2h,c
  1507   00186C  0E00               	movlw	0
  1508   00186E  BEDF               	btfsc	indf2,7,c
  1509   001870  0E01               	movlw	1
  1510   001872  6E36               	movwf	gpio_pin_write_logic@logic^0,c
  1511   001874  EC90  F009         	call	_gpio_pin_write_logic	;wreg free
  1512   001878  6E3E               	movwf	gpio_pin_intailize@ret^0,c
  1513   00187A                     l160:
  1514   00187A  0012               	return		;funcret
  1515   00187C                     __end_of_gpio_pin_intailize:
  1516                           	callstack 0
  1517                           
  1518 ;; *************** function _gpio_pin_direction_intailize *****************
  1519 ;; Defined at:
  1520 ;;		line 22 in file "MCAL_Layer/GPIO/HAL_gpio.c"
  1521 ;; Parameters:    Size  Location     Type
  1522 ;;  pin_config      1    0[COMRAM] PTR const struct .
  1523 ;;		 -> seg_en_4(1), seg_en_3(1), seg_en_2(1), seg_en_1(1), 
  1524 ;;		 -> btn_led(3), btn_reset(3), btn_count(3), segment_1$segment_pins(4), 
  1525 ;;		 -> segment_1(5), LED_intailize@pin_obj(1), 
  1526 ;; Auto vars:     Size  Location     Type
  1527 ;;  ret             1    6[COMRAM] unsigned char 
  1528 ;; Return value:  Size  Location     Type
  1529 ;;                  1    wreg      unsigned char 
  1530 ;; Registers used:
  1531 ;;		wreg, fsr2l, fsr2h, status,2, status,0, prodl, prodh
  1532 ;; Tracked objects:
  1533 ;;		On entry : 0/0
  1534 ;;		On exit  : 0/0
  1535 ;;		Unchanged: 0/0
  1536 ;; Data sizes:     COMRAM   BANK0   BANK1   BANK2   BANK3   BANK4   BANK5   BANK6   BANK7   BANK8   BANK9  BANK10  BANK1
      +1  BANK12  BANK13  BANK14  BANK15
  1537 ;;      Params:         1       0       0       0       0       0       0       0       0       0       0       0       
      +0       0       0       0       0
  1538 ;;      Locals:         1       0       0       0       0       0       0       0       0       0       0       0       
      +0       0       0       0       0
  1539 ;;      Temps:          5       0       0       0       0       0       0       0       0       0       0       0       
      +0       0       0       0       0
  1540 ;;      Totals:         7       0       0       0       0       0       0       0       0       0       0       0       
      +0       0       0       0       0
  1541 ;;Total ram usage:        7 bytes
  1542 ;; Hardware stack levels used: 1
  1543 ;; This function calls:
  1544 ;;		Nothing
  1545 ;; This function is called by:
  1546 ;;		_button_initialize
  1547 ;;		_gpio_pin_intailize
  1548 ;; This function uses a non-reentrant model
  1549 ;;
  1550                           
  1551                           	psect	text9
  1552   00120E                     __ptext9:
  1553                           	callstack 0
  1554   00120E                     _gpio_pin_direction_intailize:
  1555                           	callstack 27
  1556   00120E                     
  1557                           ;MCAL_Layer/GPIO/HAL_gpio.c: 23:     Std_ReturnType ret = (Std_ReturnType)0X01;
  1558   00120E  0E01               	movlw	1
  1559   001210  6E3B               	movwf	gpio_pin_direction_intailize@ret^0,c
  1560                           
  1561                           ;MCAL_Layer/GPIO/HAL_gpio.c: 24:     if( ((void*)0) == pin_config || pin_config->pin > 8
      +                           -1){
  1562   001212  5035               	movf	gpio_pin_direction_intailize@pin_config^0,w,c
  1563   001214  B4D8               	btfsc	status,2,c
  1564   001216  EF0F  F009         	goto	u641
  1565   00121A  EF11  F009         	goto	u640
  1566   00121E                     u641:
  1567   00121E  EF21  F009         	goto	l1349
  1568   001222                     u640:
  1569   001222  5035               	movf	gpio_pin_direction_intailize@pin_config^0,w,c
  1570   001224  6ED9               	movwf	fsr2l,c
  1571   001226  6ADA               	clrf	fsr2h,c
  1572   001228  30DF               	rrcf	223,w,c
  1573   00122A  32E8               	rrcf	wreg,f,c
  1574   00122C  32E8               	rrcf	wreg,f,c
  1575   00122E  0B07               	andlw	7
  1576   001230  6E36               	movwf	??_gpio_pin_direction_intailize^0,c
  1577   001232  0E07               	movlw	7
  1578   001234  6436               	cpfsgt	??_gpio_pin_direction_intailize^0,c
  1579   001236  EF1F  F009         	goto	u651
  1580   00123A  EF21  F009         	goto	u650
  1581   00123E                     u651:
  1582   00123E  EF78  F009         	goto	l1357
  1583   001242                     u650:
  1584   001242                     l1349:
  1585                           
  1586                           ;MCAL_Layer/GPIO/HAL_gpio.c: 25:         ret = (Std_ReturnType)0X00;
  1587   001242  0E00               	movlw	0
  1588   001244  6E3B               	movwf	gpio_pin_direction_intailize@ret^0,c
  1589                           
  1590                           ;MCAL_Layer/GPIO/HAL_gpio.c: 26:     }
  1591   001246  EF8E  F009         	goto	l1359
  1592   00124A                     l1351:
  1593                           
  1594                           ;MCAL_Layer/GPIO/HAL_gpio.c: 30:             (*tris_regesters[pin_config->port] &= ~((ui
      +                          nt8)1 << pin_config->pin));
  1595   00124A  5035               	movf	gpio_pin_direction_intailize@pin_config^0,w,c
  1596   00124C  6ED9               	movwf	fsr2l,c
  1597   00124E  6ADA               	clrf	fsr2h,c
  1598   001250  30DF               	rrcf	223,w,c
  1599   001252  32E8               	rrcf	wreg,f,c
  1600   001254  32E8               	rrcf	wreg,f,c
  1601   001256  0B07               	andlw	7
  1602   001258  6E36               	movwf	??_gpio_pin_direction_intailize^0,c
  1603   00125A  0E01               	movlw	1
  1604   00125C  6E37               	movwf	(??_gpio_pin_direction_intailize+1)^0,c
  1605   00125E  2A36               	incf	??_gpio_pin_direction_intailize^0,f,c
  1606   001260  EF34  F009         	goto	u664
  1607   001264                     u665:
  1608   001264  90D8               	bcf	status,0,c
  1609   001266  3637               	rlcf	(??_gpio_pin_direction_intailize+1)^0,f,c
  1610   001268                     u664:
  1611   001268  2E36               	decfsz	??_gpio_pin_direction_intailize^0,f,c
  1612   00126A  EF32  F009         	goto	u665
  1613   00126E  5037               	movf	(??_gpio_pin_direction_intailize+1)^0,w,c
  1614   001270  0AFF               	xorlw	255
  1615   001272  6E38               	movwf	(??_gpio_pin_direction_intailize+2)^0,c
  1616   001274  5035               	movf	gpio_pin_direction_intailize@pin_config^0,w,c
  1617   001276  6ED9               	movwf	fsr2l,c
  1618   001278  6ADA               	clrf	fsr2h,c
  1619   00127A  50DF               	movf	223,w,c
  1620   00127C  0B07               	andlw	7
  1621   00127E  0D02               	mullw	2
  1622   001280  50F3               	movf	243,w,c
  1623   001282  0F15               	addlw	low _tris_regesters
  1624   001284  6ED9               	movwf	fsr2l,c
  1625   001286  6ADA               	clrf	fsr2h,c
  1626   001288  CFDE F039          	movff	postinc2,??_gpio_pin_direction_intailize+3
  1627   00128C  CFDD F03A          	movff	postdec2,??_gpio_pin_direction_intailize+4
  1628   001290  C039  FFD9         	movff	??_gpio_pin_direction_intailize+3,fsr2l
  1629   001294  C03A  FFDA         	movff	??_gpio_pin_direction_intailize+4,fsr2h
  1630   001298  5038               	movf	(??_gpio_pin_direction_intailize+2)^0,w,c
  1631   00129A  16DF               	andwf	indf2,f,c
  1632                           
  1633                           ;MCAL_Layer/GPIO/HAL_gpio.c: 31:             break;
  1634   00129C  EF8E  F009         	goto	l1359
  1635   0012A0                     l1353:
  1636                           
  1637                           ;MCAL_Layer/GPIO/HAL_gpio.c: 33:             (*tris_regesters[pin_config->port] |= ((uin
      +                          t8)1 << pin_config->pin));
  1638   0012A0  5035               	movf	gpio_pin_direction_intailize@pin_config^0,w,c
  1639   0012A2  6ED9               	movwf	fsr2l,c
  1640   0012A4  6ADA               	clrf	fsr2h,c
  1641   0012A6  30DF               	rrcf	223,w,c
  1642   0012A8  32E8               	rrcf	wreg,f,c
  1643   0012AA  32E8               	rrcf	wreg,f,c
  1644   0012AC  0B07               	andlw	7
  1645   0012AE  6E36               	movwf	??_gpio_pin_direction_intailize^0,c
  1646   0012B0  0E01               	movlw	1
  1647   0012B2  6E37               	movwf	(??_gpio_pin_direction_intailize+1)^0,c
  1648   0012B4  2A36               	incf	??_gpio_pin_direction_intailize^0,f,c
  1649   0012B6  EF5F  F009         	goto	u674
  1650   0012BA                     u675:
  1651   0012BA  90D8               	bcf	status,0,c
  1652   0012BC  3637               	rlcf	(??_gpio_pin_direction_intailize+1)^0,f,c
  1653   0012BE                     u674:
  1654   0012BE  2E36               	decfsz	??_gpio_pin_direction_intailize^0,f,c
  1655   0012C0  EF5D  F009         	goto	u675
  1656   0012C4  5035               	movf	gpio_pin_direction_intailize@pin_config^0,w,c
  1657   0012C6  6ED9               	movwf	fsr2l,c
  1658   0012C8  6ADA               	clrf	fsr2h,c
  1659   0012CA  50DF               	movf	223,w,c
  1660   0012CC  0B07               	andlw	7
  1661   0012CE  0D02               	mullw	2
  1662   0012D0  50F3               	movf	243,w,c
  1663   0012D2  0F15               	addlw	low _tris_regesters
  1664   0012D4  6ED9               	movwf	fsr2l,c
  1665   0012D6  6ADA               	clrf	fsr2h,c
  1666   0012D8  CFDE F038          	movff	postinc2,??_gpio_pin_direction_intailize+2
  1667   0012DC  CFDD F039          	movff	postdec2,??_gpio_pin_direction_intailize+3
  1668   0012E0  C038  FFD9         	movff	??_gpio_pin_direction_intailize+2,fsr2l
  1669   0012E4  C039  FFDA         	movff	??_gpio_pin_direction_intailize+3,fsr2h
  1670   0012E8  5037               	movf	(??_gpio_pin_direction_intailize+1)^0,w,c
  1671   0012EA  12DF               	iorwf	indf2,f,c
  1672                           
  1673                           ;MCAL_Layer/GPIO/HAL_gpio.c: 34:             break;
  1674   0012EC  EF8E  F009         	goto	l1359
  1675   0012F0                     l1357:
  1676   0012F0  5035               	movf	gpio_pin_direction_intailize@pin_config^0,w,c
  1677   0012F2  6ED9               	movwf	fsr2l,c
  1678   0012F4  6ADA               	clrf	fsr2h,c
  1679   0012F6  BCDF               	btfsc	indf2,6,c
  1680   0012F8  EF80  F009         	goto	u681
  1681   0012FC  EF83  F009         	goto	u680
  1682   001300                     u681:
  1683   001300  0E01               	movlw	1
  1684   001302  EF84  F009         	goto	u686
  1685   001306                     u680:
  1686   001306  0E00               	movlw	0
  1687   001308                     u686:
  1688                           
  1689                           ; Switch size 1, requested type "simple"
  1690                           ; Number of cases is 2, Range of values is 0 to 1
  1691                           ; switch strategies available:
  1692                           ; Name         Instructions Cycles
  1693                           ; simple_byte            7     4 (average)
  1694                           ;	Chosen strategy is simple_byte
  1695   001308  0A00               	xorlw	0	; case 0
  1696   00130A  B4D8               	btfsc	status,2,c
  1697   00130C  EF25  F009         	goto	l1351
  1698   001310  0A01               	xorlw	1	; case 1
  1699   001312  B4D8               	btfsc	status,2,c
  1700   001314  EF50  F009         	goto	l1353
  1701   001318  EF21  F009         	goto	l1349
  1702   00131C                     l1359:
  1703                           
  1704                           ;MCAL_Layer/GPIO/HAL_gpio.c: 40:     return ret;
  1705   00131C  503B               	movf	gpio_pin_direction_intailize@ret^0,w,c
  1706   00131E  0012               	return		;funcret
  1707   001320                     __end_of_gpio_pin_direction_intailize:
  1708                           	callstack 0
  1709                           
  1710 ;; *************** function ___lwmod *****************
  1711 ;; Defined at:
  1712 ;;		line 7 in file "C:\Program Files\Microchip\xc8\v2.46\pic\sources\c99\common\lwmod.c"
  1713 ;; Parameters:    Size  Location     Type
  1714 ;;  dividend        2    7[COMRAM] unsigned int 
  1715 ;;  divisor         2    9[COMRAM] unsigned int 
  1716 ;; Auto vars:     Size  Location     Type
  1717 ;;  counter         1   11[COMRAM] unsigned char 
  1718 ;; Return value:  Size  Location     Type
  1719 ;;                  2    7[COMRAM] unsigned int 
  1720 ;; Registers used:
  1721 ;;		wreg, status,2, status,0
  1722 ;; Tracked objects:
  1723 ;;		On entry : 0/0
  1724 ;;		On exit  : 0/0
  1725 ;;		Unchanged: 0/0
  1726 ;; Data sizes:     COMRAM   BANK0   BANK1   BANK2   BANK3   BANK4   BANK5   BANK6   BANK7   BANK8   BANK9  BANK10  BANK1
      +1  BANK12  BANK13  BANK14  BANK15
  1727 ;;      Params:         4       0       0       0       0       0       0       0       0       0       0       0       
      +0       0       0       0       0
  1728 ;;      Locals:         1       0       0       0       0       0       0       0       0       0       0       0       
      +0       0       0       0       0
  1729 ;;      Temps:          0       0       0       0       0       0       0       0       0       0       0       0       
      +0       0       0       0       0
  1730 ;;      Totals:         5       0       0       0       0       0       0       0       0       0       0       0       
      +0       0       0       0       0
  1731 ;;Total ram usage:        5 bytes
  1732 ;; Hardware stack levels used: 1
  1733 ;; This function calls:
  1734 ;;		Nothing
  1735 ;; This function is called by:
  1736 ;;		_main
  1737 ;; This function uses a non-reentrant model
  1738 ;;
  1739                           
  1740                           	psect	text10
  1741   0017C2                     __ptext10:
  1742                           	callstack 0
  1743   0017C2                     ___lwmod:
  1744                           	callstack 30
  1745   0017C2  503E               	movf	___lwmod@divisor^0,w,c
  1746   0017C4  103F               	iorwf	(___lwmod@divisor+1)^0,w,c
  1747   0017C6  B4D8               	btfsc	status,2,c
  1748   0017C8  EFE8  F00B         	goto	u941
  1749   0017CC  EFEA  F00B         	goto	u940
  1750   0017D0                     u941:
  1751   0017D0  EF0E  F00C         	goto	l759
  1752   0017D4                     u940:
  1753   0017D4  0E01               	movlw	1
  1754   0017D6  6E40               	movwf	___lwmod@counter^0,c
  1755   0017D8  EFF2  F00B         	goto	l1541
  1756   0017DC                     l1539:
  1757   0017DC  90D8               	bcf	status,0,c
  1758   0017DE  363E               	rlcf	___lwmod@divisor^0,f,c
  1759   0017E0  363F               	rlcf	(___lwmod@divisor+1)^0,f,c
  1760   0017E2  2A40               	incf	___lwmod@counter^0,f,c
  1761   0017E4                     l1541:
  1762   0017E4  AE3F               	btfss	(___lwmod@divisor+1)^0,7,c
  1763   0017E6  EFF7  F00B         	goto	u951
  1764   0017EA  EFF9  F00B         	goto	u950
  1765   0017EE                     u951:
  1766   0017EE  EFEE  F00B         	goto	l1539
  1767   0017F2                     u950:
  1768   0017F2                     l1543:
  1769   0017F2  503E               	movf	___lwmod@divisor^0,w,c
  1770   0017F4  5C3C               	subwf	___lwmod@dividend^0,w,c
  1771   0017F6  503F               	movf	(___lwmod@divisor+1)^0,w,c
  1772   0017F8  583D               	subwfb	(___lwmod@dividend+1)^0,w,c
  1773   0017FA  A0D8               	btfss	status,0,c
  1774   0017FC  EF02  F00C         	goto	u961
  1775   001800  EF04  F00C         	goto	u960
  1776   001804                     u961:
  1777   001804  EF08  F00C         	goto	l1547
  1778   001808                     u960:
  1779   001808  503E               	movf	___lwmod@divisor^0,w,c
  1780   00180A  5E3C               	subwf	___lwmod@dividend^0,f,c
  1781   00180C  503F               	movf	(___lwmod@divisor+1)^0,w,c
  1782   00180E  5A3D               	subwfb	(___lwmod@dividend+1)^0,f,c
  1783   001810                     l1547:
  1784   001810  90D8               	bcf	status,0,c
  1785   001812  323F               	rrcf	(___lwmod@divisor+1)^0,f,c
  1786   001814  323E               	rrcf	___lwmod@divisor^0,f,c
  1787   001816  2E40               	decfsz	___lwmod@counter^0,f,c
  1788   001818  EFF9  F00B         	goto	l1543
  1789   00181C                     l759:
  1790   00181C  C03C  F03C         	movff	___lwmod@dividend,?___lwmod
  1791   001820  C03D  F03D         	movff	___lwmod@dividend+1,?___lwmod+1
  1792   001824  0012               	return		;funcret
  1793   001826                     __end_of___lwmod:
  1794                           	callstack 0
  1795                           
  1796 ;; *************** function ___lwdiv *****************
  1797 ;; Defined at:
  1798 ;;		line 7 in file "C:\Program Files\Microchip\xc8\v2.46\pic\sources\c99\common\lwdiv.c"
  1799 ;; Parameters:    Size  Location     Type
  1800 ;;  dividend        2    0[COMRAM] unsigned int 
  1801 ;;  divisor         2    2[COMRAM] unsigned int 
  1802 ;; Auto vars:     Size  Location     Type
  1803 ;;  quotient        2    4[COMRAM] unsigned int 
  1804 ;;  counter         1    6[COMRAM] unsigned char 
  1805 ;; Return value:  Size  Location     Type
  1806 ;;                  2    0[COMRAM] unsigned int 
  1807 ;; Registers used:
  1808 ;;		wreg, status,2, status,0
  1809 ;; Tracked objects:
  1810 ;;		On entry : 0/0
  1811 ;;		On exit  : 0/0
  1812 ;;		Unchanged: 0/0
  1813 ;; Data sizes:     COMRAM   BANK0   BANK1   BANK2   BANK3   BANK4   BANK5   BANK6   BANK7   BANK8   BANK9  BANK10  BANK1
      +1  BANK12  BANK13  BANK14  BANK15
  1814 ;;      Params:         4       0       0       0       0       0       0       0       0       0       0       0       
      +0       0       0       0       0
  1815 ;;      Locals:         3       0       0       0       0       0       0       0       0       0       0       0       
      +0       0       0       0       0
  1816 ;;      Temps:          0       0       0       0       0       0       0       0       0       0       0       0       
      +0       0       0       0       0
  1817 ;;      Totals:         7       0       0       0       0       0       0       0       0       0       0       0       
      +0       0       0       0       0
  1818 ;;Total ram usage:        7 bytes
  1819 ;; Hardware stack levels used: 1
  1820 ;; This function calls:
  1821 ;;		Nothing
  1822 ;; This function is called by:
  1823 ;;		_main
  1824 ;; This function uses a non-reentrant model
  1825 ;;
  1826                           
  1827                           	psect	text11
  1828   0015F6                     __ptext11:
  1829                           	callstack 0
  1830   0015F6                     ___lwdiv:
  1831                           	callstack 30
  1832   0015F6  0E00               	movlw	0
  1833   0015F8  6E3A               	movwf	(___lwdiv@quotient+1)^0,c
  1834   0015FA  0E00               	movlw	0
  1835   0015FC  6E39               	movwf	___lwdiv@quotient^0,c
  1836   0015FE  5037               	movf	___lwdiv@divisor^0,w,c
  1837   001600  1038               	iorwf	(___lwdiv@divisor+1)^0,w,c
  1838   001602  B4D8               	btfsc	status,2,c
  1839   001604  EF06  F00B         	goto	u911
  1840   001608  EF08  F00B         	goto	u910
  1841   00160C                     u911:
  1842   00160C  EF30  F00B         	goto	l749
  1843   001610                     u910:
  1844   001610  0E01               	movlw	1
  1845   001612  6E3B               	movwf	___lwdiv@counter^0,c
  1846   001614  EF10  F00B         	goto	l1521
  1847   001618                     l1519:
  1848   001618  90D8               	bcf	status,0,c
  1849   00161A  3637               	rlcf	___lwdiv@divisor^0,f,c
  1850   00161C  3638               	rlcf	(___lwdiv@divisor+1)^0,f,c
  1851   00161E  2A3B               	incf	___lwdiv@counter^0,f,c
  1852   001620                     l1521:
  1853   001620  AE38               	btfss	(___lwdiv@divisor+1)^0,7,c
  1854   001622  EF15  F00B         	goto	u921
  1855   001626  EF17  F00B         	goto	u920
  1856   00162A                     u921:
  1857   00162A  EF0C  F00B         	goto	l1519
  1858   00162E                     u920:
  1859   00162E                     l1523:
  1860   00162E  90D8               	bcf	status,0,c
  1861   001630  3639               	rlcf	___lwdiv@quotient^0,f,c
  1862   001632  363A               	rlcf	(___lwdiv@quotient+1)^0,f,c
  1863   001634  5037               	movf	___lwdiv@divisor^0,w,c
  1864   001636  5C35               	subwf	___lwdiv@dividend^0,w,c
  1865   001638  5038               	movf	(___lwdiv@divisor+1)^0,w,c
  1866   00163A  5836               	subwfb	(___lwdiv@dividend+1)^0,w,c
  1867   00163C  A0D8               	btfss	status,0,c
  1868   00163E  EF23  F00B         	goto	u931
  1869   001642  EF25  F00B         	goto	u930
  1870   001646                     u931:
  1871   001646  EF2A  F00B         	goto	l1531
  1872   00164A                     u930:
  1873   00164A  5037               	movf	___lwdiv@divisor^0,w,c
  1874   00164C  5E35               	subwf	___lwdiv@dividend^0,f,c
  1875   00164E  5038               	movf	(___lwdiv@divisor+1)^0,w,c
  1876   001650  5A36               	subwfb	(___lwdiv@dividend+1)^0,f,c
  1877   001652  8039               	bsf	___lwdiv@quotient^0,0,c
  1878   001654                     l1531:
  1879   001654  90D8               	bcf	status,0,c
  1880   001656  3238               	rrcf	(___lwdiv@divisor+1)^0,f,c
  1881   001658  3237               	rrcf	___lwdiv@divisor^0,f,c
  1882   00165A  2E3B               	decfsz	___lwdiv@counter^0,f,c
  1883   00165C  EF17  F00B         	goto	l1523
  1884   001660                     l749:
  1885   001660  C039  F035         	movff	___lwdiv@quotient,?___lwdiv
  1886   001664  C03A  F036         	movff	___lwdiv@quotient+1,?___lwdiv+1
  1887   001668  0012               	return		;funcret
  1888   00166A                     __end_of___lwdiv:
  1889                           	callstack 0
  1890                           
  1891 ;; *************** function _LED_TURN_ON *****************
  1892 ;; Defined at:
  1893 ;;		line 41 in file "ECU_layer/LED/ecu_led.c"
  1894 ;; Parameters:    Size  Location     Type
  1895 ;;  led             1    8[COMRAM] PTR const struct .
  1896 ;;		 -> led(1), 
  1897 ;; Auto vars:     Size  Location     Type
  1898 ;;  pin_obj         1   11[COMRAM] struct .
  1899 ;;  ret             1   10[COMRAM] unsigned char 
  1900 ;; Return value:  Size  Location     Type
  1901 ;;                  1    wreg      unsigned char 
  1902 ;; Registers used:
  1903 ;;		wreg, fsr2l, fsr2h, status,2, status,0, prodl, prodh, cstack
  1904 ;; Tracked objects:
  1905 ;;		On entry : 0/0
  1906 ;;		On exit  : 0/0
  1907 ;;		Unchanged: 0/0
  1908 ;; Data sizes:     COMRAM   BANK0   BANK1   BANK2   BANK3   BANK4   BANK5   BANK6   BANK7   BANK8   BANK9  BANK10  BANK1
      +1  BANK12  BANK13  BANK14  BANK15
  1909 ;;      Params:         1       0       0       0       0       0       0       0       0       0       0       0       
      +0       0       0       0       0
  1910 ;;      Locals:         2       0       0       0       0       0       0       0       0       0       0       0       
      +0       0       0       0       0
  1911 ;;      Temps:          1       0       0       0       0       0       0       0       0       0       0       0       
      +0       0       0       0       0
  1912 ;;      Totals:         4       0       0       0       0       0       0       0       0       0       0       0       
      +0       0       0       0       0
  1913 ;;Total ram usage:        4 bytes
  1914 ;; Hardware stack levels used: 1
  1915 ;; Hardware stack levels required when called: 1
  1916 ;; This function calls:
  1917 ;;		_gpio_pin_write_logic
  1918 ;; This function is called by:
  1919 ;;		_main
  1920 ;; This function uses a non-reentrant model
  1921 ;;
  1922                           
  1923                           	psect	text12
  1924   00166A                     __ptext12:
  1925                           	callstack 0
  1926   00166A                     _LED_TURN_ON:
  1927                           	callstack 29
  1928   00166A                     
  1929                           ;ECU_layer/LED/ecu_led.c: 42:     Std_ReturnType ret = (Std_ReturnType)0X01;
  1930   00166A  0E01               	movlw	1
  1931   00166C  6E3F               	movwf	LED_TURN_ON@ret^0,c
  1932                           
  1933                           ;ECU_layer/LED/ecu_led.c: 44:     if( ((void*)0) == led ){
  1934   00166E  503D               	movf	LED_TURN_ON@led^0,w,c
  1935   001670  A4D8               	btfss	status,2,c
  1936   001672  EF3D  F00B         	goto	u871
  1937   001676  EF3F  F00B         	goto	u870
  1938   00167A                     u871:
  1939   00167A  EF43  F00B         	goto	l54
  1940   00167E                     u870:
  1941   00167E                     
  1942                           ;ECU_layer/LED/ecu_led.c: 45:         ret = (Std_ReturnType)0X00;
  1943   00167E  0E00               	movlw	0
  1944   001680  6E3F               	movwf	LED_TURN_ON@ret^0,c
  1945                           
  1946                           ;ECU_layer/LED/ecu_led.c: 46:     }
  1947   001682  EF6D  F00B         	goto	l1473
  1948   001686                     l54:
  1949                           
  1950                           ;ECU_layer/LED/ecu_led.c: 48:         pin_config_t pin_obj =
  1951   001686  C04D  F040         	movff	LED_TURN_ON@F2899,LED_TURN_ON@pin_obj
  1952   00168A  503D               	movf	LED_TURN_ON@led^0,w,c
  1953   00168C  6ED9               	movwf	fsr2l,c
  1954   00168E  6ADA               	clrf	fsr2h,c
  1955   001690  50DF               	movf	223,w,c
  1956   001692  0B0F               	andlw	15
  1957   001694  6E3E               	movwf	??_LED_TURN_ON^0,c
  1958   001696  5040               	movf	LED_TURN_ON@pin_obj^0,w,c
  1959   001698  183E               	xorwf	??_LED_TURN_ON^0,w,c
  1960   00169A  0BF8               	andlw	-8
  1961   00169C  183E               	xorwf	??_LED_TURN_ON^0,w,c
  1962   00169E  6E40               	movwf	LED_TURN_ON@pin_obj^0,c
  1963   0016A0  503D               	movf	LED_TURN_ON@led^0,w,c
  1964   0016A2  6ED9               	movwf	fsr2l,c
  1965   0016A4  6ADA               	clrf	fsr2h,c
  1966   0016A6  38DF               	swapf	223,w,c
  1967   0016A8  0B07               	andlw	7
  1968   0016AA  6E3E               	movwf	??_LED_TURN_ON^0,c
  1969   0016AC  463E               	rlncf	??_LED_TURN_ON^0,f,c
  1970   0016AE  463E               	rlncf	??_LED_TURN_ON^0,f,c
  1971   0016B0  463E               	rlncf	??_LED_TURN_ON^0,f,c
  1972   0016B2  5040               	movf	LED_TURN_ON@pin_obj^0,w,c
  1973   0016B4  183E               	xorwf	??_LED_TURN_ON^0,w,c
  1974   0016B6  0BC7               	andlw	-57
  1975   0016B8  183E               	xorwf	??_LED_TURN_ON^0,w,c
  1976   0016BA  6E40               	movwf	LED_TURN_ON@pin_obj^0,c
  1977   0016BC  9C40               	bcf	LED_TURN_ON@pin_obj^0,6,c
  1978   0016BE  503D               	movf	LED_TURN_ON@led^0,w,c
  1979   0016C0  6ED9               	movwf	fsr2l,c
  1980   0016C2  6ADA               	clrf	fsr2h,c
  1981   0016C4  AEDF               	btfss	indf2,7,c
  1982   0016C6  D002               	bra	u885
  1983   0016C8  8E40               	bsf	LED_TURN_ON@pin_obj^0,7,c
  1984   0016CA  D001               	bra	u887
  1985   0016CC                     u885:
  1986   0016CC  9E40               	bcf	LED_TURN_ON@pin_obj^0,7,c
  1987   0016CE                     u887:
  1988   0016CE                     
  1989                           ;ECU_layer/LED/ecu_led.c: 53:         gpio_pin_write_logic(&pin_obj, HIGH);
  1990   0016CE  0E40               	movlw	low LED_TURN_ON@pin_obj
  1991   0016D0  6E35               	movwf	gpio_pin_write_logic@pin_config^0,c
  1992   0016D2  0E01               	movlw	1
  1993   0016D4  6E36               	movwf	gpio_pin_write_logic@logic^0,c
  1994   0016D6  EC90  F009         	call	_gpio_pin_write_logic	;wreg free
  1995   0016DA                     l1473:
  1996                           
  1997                           ;ECU_layer/LED/ecu_led.c: 56:     return ret;
  1998   0016DA  503F               	movf	LED_TURN_ON@ret^0,w,c
  1999   0016DC  0012               	return		;funcret
  2000   0016DE                     __end_of_LED_TURN_ON:
  2001                           	callstack 0
  2002                           
  2003 ;; *************** function _LED_TURN_OFF *****************
  2004 ;; Defined at:
  2005 ;;		line 66 in file "ECU_layer/LED/ecu_led.c"
  2006 ;; Parameters:    Size  Location     Type
  2007 ;;  led             1    8[COMRAM] PTR const struct .
  2008 ;;		 -> led(1), 
  2009 ;; Auto vars:     Size  Location     Type
  2010 ;;  pin_obj         1   11[COMRAM] struct .
  2011 ;;  ret             1   10[COMRAM] unsigned char 
  2012 ;; Return value:  Size  Location     Type
  2013 ;;                  1    wreg      unsigned char 
  2014 ;; Registers used:
  2015 ;;		wreg, fsr2l, fsr2h, status,2, status,0, prodl, prodh, cstack
  2016 ;; Tracked objects:
  2017 ;;		On entry : 0/0
  2018 ;;		On exit  : 0/0
  2019 ;;		Unchanged: 0/0
  2020 ;; Data sizes:     COMRAM   BANK0   BANK1   BANK2   BANK3   BANK4   BANK5   BANK6   BANK7   BANK8   BANK9  BANK10  BANK1
      +1  BANK12  BANK13  BANK14  BANK15
  2021 ;;      Params:         1       0       0       0       0       0       0       0       0       0       0       0       
      +0       0       0       0       0
  2022 ;;      Locals:         2       0       0       0       0       0       0       0       0       0       0       0       
      +0       0       0       0       0
  2023 ;;      Temps:          1       0       0       0       0       0       0       0       0       0       0       0       
      +0       0       0       0       0
  2024 ;;      Totals:         4       0       0       0       0       0       0       0       0       0       0       0       
      +0       0       0       0       0
  2025 ;;Total ram usage:        4 bytes
  2026 ;; Hardware stack levels used: 1
  2027 ;; Hardware stack levels required when called: 1
  2028 ;; This function calls:
  2029 ;;		_gpio_pin_write_logic
  2030 ;; This function is called by:
  2031 ;;		_main
  2032 ;; This function uses a non-reentrant model
  2033 ;;
  2034                           
  2035                           	psect	text13
  2036   0016DE                     __ptext13:
  2037                           	callstack 0
  2038   0016DE                     _LED_TURN_OFF:
  2039                           	callstack 29
  2040   0016DE                     
  2041                           ;ECU_layer/LED/ecu_led.c: 67:     Std_ReturnType ret = (Std_ReturnType)0X01;
  2042   0016DE  0E01               	movlw	1
  2043   0016E0  6E3F               	movwf	LED_TURN_OFF@ret^0,c
  2044                           
  2045                           ;ECU_layer/LED/ecu_led.c: 69:     if( ((void*)0) == led ){
  2046   0016E2  503D               	movf	LED_TURN_OFF@led^0,w,c
  2047   0016E4  A4D8               	btfss	status,2,c
  2048   0016E6  EF77  F00B         	goto	u891
  2049   0016EA  EF79  F00B         	goto	u890
  2050   0016EE                     u891:
  2051   0016EE  EF7D  F00B         	goto	l61
  2052   0016F2                     u890:
  2053   0016F2                     
  2054                           ;ECU_layer/LED/ecu_led.c: 70:         ret = (Std_ReturnType)0X00;
  2055   0016F2  0E00               	movlw	0
  2056   0016F4  6E3F               	movwf	LED_TURN_OFF@ret^0,c
  2057                           
  2058                           ;ECU_layer/LED/ecu_led.c: 71:     }
  2059   0016F6  EFA7  F00B         	goto	l1489
  2060   0016FA                     l61:
  2061                           
  2062                           ;ECU_layer/LED/ecu_led.c: 73:         pin_config_t pin_obj =
  2063   0016FA  C04C  F040         	movff	LED_TURN_OFF@F2904,LED_TURN_OFF@pin_obj
  2064   0016FE  503D               	movf	LED_TURN_OFF@led^0,w,c
  2065   001700  6ED9               	movwf	fsr2l,c
  2066   001702  6ADA               	clrf	fsr2h,c
  2067   001704  50DF               	movf	223,w,c
  2068   001706  0B0F               	andlw	15
  2069   001708  6E3E               	movwf	??_LED_TURN_OFF^0,c
  2070   00170A  5040               	movf	LED_TURN_OFF@pin_obj^0,w,c
  2071   00170C  183E               	xorwf	??_LED_TURN_OFF^0,w,c
  2072   00170E  0BF8               	andlw	-8
  2073   001710  183E               	xorwf	??_LED_TURN_OFF^0,w,c
  2074   001712  6E40               	movwf	LED_TURN_OFF@pin_obj^0,c
  2075   001714  503D               	movf	LED_TURN_OFF@led^0,w,c
  2076   001716  6ED9               	movwf	fsr2l,c
  2077   001718  6ADA               	clrf	fsr2h,c
  2078   00171A  38DF               	swapf	223,w,c
  2079   00171C  0B07               	andlw	7
  2080   00171E  6E3E               	movwf	??_LED_TURN_OFF^0,c
  2081   001720  463E               	rlncf	??_LED_TURN_OFF^0,f,c
  2082   001722  463E               	rlncf	??_LED_TURN_OFF^0,f,c
  2083   001724  463E               	rlncf	??_LED_TURN_OFF^0,f,c
  2084   001726  5040               	movf	LED_TURN_OFF@pin_obj^0,w,c
  2085   001728  183E               	xorwf	??_LED_TURN_OFF^0,w,c
  2086   00172A  0BC7               	andlw	-57
  2087   00172C  183E               	xorwf	??_LED_TURN_OFF^0,w,c
  2088   00172E  6E40               	movwf	LED_TURN_OFF@pin_obj^0,c
  2089   001730  9C40               	bcf	LED_TURN_OFF@pin_obj^0,6,c
  2090   001732  503D               	movf	LED_TURN_OFF@led^0,w,c
  2091   001734  6ED9               	movwf	fsr2l,c
  2092   001736  6ADA               	clrf	fsr2h,c
  2093   001738  AEDF               	btfss	indf2,7,c
  2094   00173A  D002               	bra	u905
  2095   00173C  8E40               	bsf	LED_TURN_OFF@pin_obj^0,7,c
  2096   00173E  D001               	bra	u907
  2097   001740                     u905:
  2098   001740  9E40               	bcf	LED_TURN_OFF@pin_obj^0,7,c
  2099   001742                     u907:
  2100   001742                     
  2101                           ;ECU_layer/LED/ecu_led.c: 78:         gpio_pin_write_logic(&pin_obj, LOW);
  2102   001742  0E40               	movlw	low LED_TURN_OFF@pin_obj
  2103   001744  6E35               	movwf	gpio_pin_write_logic@pin_config^0,c
  2104   001746  0E00               	movlw	0
  2105   001748  6E36               	movwf	gpio_pin_write_logic@logic^0,c
  2106   00174A  EC90  F009         	call	_gpio_pin_write_logic	;wreg free
  2107   00174E                     l1489:
  2108                           
  2109                           ;ECU_layer/LED/ecu_led.c: 81:     return ret;
  2110   00174E  503F               	movf	LED_TURN_OFF@ret^0,w,c
  2111   001750  0012               	return		;funcret
  2112   001752                     __end_of_LED_TURN_OFF:
  2113                           	callstack 0
  2114                           
  2115 ;; *************** function _gpio_pin_write_logic *****************
  2116 ;; Defined at:
  2117 ;;		line 69 in file "MCAL_Layer/GPIO/HAL_gpio.c"
  2118 ;; Parameters:    Size  Location     Type
  2119 ;;  pin_config      1    0[COMRAM] PTR const struct .
  2120 ;;		 -> seg_en_4(1), seg_en_3(1), seg_en_2(1), seg_en_1(1), 
  2121 ;;		 -> segment_1$segment_pins(4), segment_1(5), LED_TURN_OFF@pin_obj(1), LED_TURN_ON@pin_obj(1), 
  2122 ;;		 -> LED_intailize@pin_obj(1), 
  2123 ;;  logic           1    1[COMRAM] enum E2814
  2124 ;; Auto vars:     Size  Location     Type
  2125 ;;  ret             1    7[COMRAM] unsigned char 
  2126 ;; Return value:  Size  Location     Type
  2127 ;;                  1    wreg      unsigned char 
  2128 ;; Registers used:
  2129 ;;		wreg, fsr2l, fsr2h, status,2, status,0, prodl, prodh
  2130 ;; Tracked objects:
  2131 ;;		On entry : 0/0
  2132 ;;		On exit  : 0/0
  2133 ;;		Unchanged: 0/0
  2134 ;; Data sizes:     COMRAM   BANK0   BANK1   BANK2   BANK3   BANK4   BANK5   BANK6   BANK7   BANK8   BANK9  BANK10  BANK1
      +1  BANK12  BANK13  BANK14  BANK15
  2135 ;;      Params:         2       0       0       0       0       0       0       0       0       0       0       0       
      +0       0       0       0       0
  2136 ;;      Locals:         1       0       0       0       0       0       0       0       0       0       0       0       
      +0       0       0       0       0
  2137 ;;      Temps:          5       0       0       0       0       0       0       0       0       0       0       0       
      +0       0       0       0       0
  2138 ;;      Totals:         8       0       0       0       0       0       0       0       0       0       0       0       
      +0       0       0       0       0
  2139 ;;Total ram usage:        8 bytes
  2140 ;; Hardware stack levels used: 1
  2141 ;; This function calls:
  2142 ;;		Nothing
  2143 ;; This function is called by:
  2144 ;;		_seven_segment_write_number
  2145 ;;		_LED_TURN_ON
  2146 ;;		_LED_TURN_OFF
  2147 ;;		_gpio_pin_intailize
  2148 ;;		_main
  2149 ;; This function uses a non-reentrant model
  2150 ;;
  2151                           
  2152                           	psect	text14
  2153   001320                     __ptext14:
  2154                           	callstack 0
  2155   001320                     _gpio_pin_write_logic:
  2156                           	callstack 29
  2157   001320                     
  2158                           ;MCAL_Layer/GPIO/HAL_gpio.c: 70:     Std_ReturnType ret = (Std_ReturnType)0X01;
  2159   001320  0E01               	movlw	1
  2160   001322  6E3C               	movwf	gpio_pin_write_logic@ret^0,c
  2161                           
  2162                           ;MCAL_Layer/GPIO/HAL_gpio.c: 71:     if( ((void*)0) == pin_config || pin_config->pin > 8
      +                           -1){
  2163   001324  5035               	movf	gpio_pin_write_logic@pin_config^0,w,c
  2164   001326  B4D8               	btfsc	status,2,c
  2165   001328  EF98  F009         	goto	u601
  2166   00132C  EF9A  F009         	goto	u600
  2167   001330                     u601:
  2168   001330  EFAA  F009         	goto	l1327
  2169   001334                     u600:
  2170   001334  5035               	movf	gpio_pin_write_logic@pin_config^0,w,c
  2171   001336  6ED9               	movwf	fsr2l,c
  2172   001338  6ADA               	clrf	fsr2h,c
  2173   00133A  30DF               	rrcf	223,w,c
  2174   00133C  32E8               	rrcf	wreg,f,c
  2175   00133E  32E8               	rrcf	wreg,f,c
  2176   001340  0B07               	andlw	7
  2177   001342  6E37               	movwf	??_gpio_pin_write_logic^0,c
  2178   001344  0E07               	movlw	7
  2179   001346  6437               	cpfsgt	??_gpio_pin_write_logic^0,c
  2180   001348  EFA8  F009         	goto	u611
  2181   00134C  EFAA  F009         	goto	u610
  2182   001350                     u611:
  2183   001350  EF01  F00A         	goto	l1335
  2184   001354                     u610:
  2185   001354                     l1327:
  2186                           
  2187                           ;MCAL_Layer/GPIO/HAL_gpio.c: 72:         ret = (Std_ReturnType)0X00;
  2188   001354  0E00               	movlw	0
  2189   001356  6E3C               	movwf	gpio_pin_write_logic@ret^0,c
  2190                           
  2191                           ;MCAL_Layer/GPIO/HAL_gpio.c: 73:     }
  2192   001358  EF16  F00A         	goto	l1337
  2193   00135C                     l1329:
  2194                           
  2195                           ;MCAL_Layer/GPIO/HAL_gpio.c: 77:             (*lat_regesters[pin_config->port] &= ~((uin
      +                          t8)1 << pin_config->pin));
  2196   00135C  5035               	movf	gpio_pin_write_logic@pin_config^0,w,c
  2197   00135E  6ED9               	movwf	fsr2l,c
  2198   001360  6ADA               	clrf	fsr2h,c
  2199   001362  30DF               	rrcf	223,w,c
  2200   001364  32E8               	rrcf	wreg,f,c
  2201   001366  32E8               	rrcf	wreg,f,c
  2202   001368  0B07               	andlw	7
  2203   00136A  6E37               	movwf	??_gpio_pin_write_logic^0,c
  2204   00136C  0E01               	movlw	1
  2205   00136E  6E38               	movwf	(??_gpio_pin_write_logic+1)^0,c
  2206   001370  2A37               	incf	??_gpio_pin_write_logic^0,f,c
  2207   001372  EFBD  F009         	goto	u624
  2208   001376                     u625:
  2209   001376  90D8               	bcf	status,0,c
  2210   001378  3638               	rlcf	(??_gpio_pin_write_logic+1)^0,f,c
  2211   00137A                     u624:
  2212   00137A  2E37               	decfsz	??_gpio_pin_write_logic^0,f,c
  2213   00137C  EFBB  F009         	goto	u625
  2214   001380  5038               	movf	(??_gpio_pin_write_logic+1)^0,w,c
  2215   001382  0AFF               	xorlw	255
  2216   001384  6E39               	movwf	(??_gpio_pin_write_logic+2)^0,c
  2217   001386  5035               	movf	gpio_pin_write_logic@pin_config^0,w,c
  2218   001388  6ED9               	movwf	fsr2l,c
  2219   00138A  6ADA               	clrf	fsr2h,c
  2220   00138C  50DF               	movf	223,w,c
  2221   00138E  0B07               	andlw	7
  2222   001390  0D02               	mullw	2
  2223   001392  50F3               	movf	243,w,c
  2224   001394  0F0B               	addlw	low _lat_regesters
  2225   001396  6ED9               	movwf	fsr2l,c
  2226   001398  6ADA               	clrf	fsr2h,c
  2227   00139A  CFDE F03A          	movff	postinc2,??_gpio_pin_write_logic+3
  2228   00139E  CFDD F03B          	movff	postdec2,??_gpio_pin_write_logic+4
  2229   0013A2  C03A  FFD9         	movff	??_gpio_pin_write_logic+3,fsr2l
  2230   0013A6  C03B  FFDA         	movff	??_gpio_pin_write_logic+4,fsr2h
  2231   0013AA  5039               	movf	(??_gpio_pin_write_logic+2)^0,w,c
  2232   0013AC  16DF               	andwf	indf2,f,c
  2233                           
  2234                           ;MCAL_Layer/GPIO/HAL_gpio.c: 78:             break;
  2235   0013AE  EF16  F00A         	goto	l1337
  2236   0013B2                     l1331:
  2237                           
  2238                           ;MCAL_Layer/GPIO/HAL_gpio.c: 80:             (*lat_regesters[pin_config->port] |= ((uint
      +                          8)1 << pin_config->pin));
  2239   0013B2  5035               	movf	gpio_pin_write_logic@pin_config^0,w,c
  2240   0013B4  6ED9               	movwf	fsr2l,c
  2241   0013B6  6ADA               	clrf	fsr2h,c
  2242   0013B8  30DF               	rrcf	223,w,c
  2243   0013BA  32E8               	rrcf	wreg,f,c
  2244   0013BC  32E8               	rrcf	wreg,f,c
  2245   0013BE  0B07               	andlw	7
  2246   0013C0  6E37               	movwf	??_gpio_pin_write_logic^0,c
  2247   0013C2  0E01               	movlw	1
  2248   0013C4  6E38               	movwf	(??_gpio_pin_write_logic+1)^0,c
  2249   0013C6  2A37               	incf	??_gpio_pin_write_logic^0,f,c
  2250   0013C8  EFE8  F009         	goto	u634
  2251   0013CC                     u635:
  2252   0013CC  90D8               	bcf	status,0,c
  2253   0013CE  3638               	rlcf	(??_gpio_pin_write_logic+1)^0,f,c
  2254   0013D0                     u634:
  2255   0013D0  2E37               	decfsz	??_gpio_pin_write_logic^0,f,c
  2256   0013D2  EFE6  F009         	goto	u635
  2257   0013D6  5035               	movf	gpio_pin_write_logic@pin_config^0,w,c
  2258   0013D8  6ED9               	movwf	fsr2l,c
  2259   0013DA  6ADA               	clrf	fsr2h,c
  2260   0013DC  50DF               	movf	223,w,c
  2261   0013DE  0B07               	andlw	7
  2262   0013E0  0D02               	mullw	2
  2263   0013E2  50F3               	movf	243,w,c
  2264   0013E4  0F0B               	addlw	low _lat_regesters
  2265   0013E6  6ED9               	movwf	fsr2l,c
  2266   0013E8  6ADA               	clrf	fsr2h,c
  2267   0013EA  CFDE F039          	movff	postinc2,??_gpio_pin_write_logic+2
  2268   0013EE  CFDD F03A          	movff	postdec2,??_gpio_pin_write_logic+3
  2269   0013F2  C039  FFD9         	movff	??_gpio_pin_write_logic+2,fsr2l
  2270   0013F6  C03A  FFDA         	movff	??_gpio_pin_write_logic+3,fsr2h
  2271   0013FA  5038               	movf	(??_gpio_pin_write_logic+1)^0,w,c
  2272   0013FC  12DF               	iorwf	indf2,f,c
  2273                           
  2274                           ;MCAL_Layer/GPIO/HAL_gpio.c: 81:             break;
  2275   0013FE  EF16  F00A         	goto	l1337
  2276   001402                     l1335:
  2277   001402  5036               	movf	gpio_pin_write_logic@logic^0,w,c
  2278   001404  6E37               	movwf	??_gpio_pin_write_logic^0,c
  2279   001406  6A38               	clrf	(??_gpio_pin_write_logic+1)^0,c
  2280                           
  2281                           ; Switch on 2 bytes has been partitioned into a top level switch of size 1, and 1 sub-sw
      +                          itches
  2282                           ; Switch size 1, requested type "simple"
  2283                           ; Number of cases is 1, Range of values is 0 to 0
  2284                           ; switch strategies available:
  2285                           ; Name         Instructions Cycles
  2286                           ; simple_byte            4     3 (average)
  2287                           ;	Chosen strategy is simple_byte
  2288   001408  5038               	movf	(??_gpio_pin_write_logic+1)^0,w,c
  2289   00140A  0A00               	xorlw	0	; case 0
  2290   00140C  B4D8               	btfsc	status,2,c
  2291   00140E  EF0B  F00A         	goto	l1621
  2292   001412  EFAA  F009         	goto	l1327
  2293   001416                     l1621:
  2294                           
  2295                           ; Switch size 1, requested type "simple"
  2296                           ; Number of cases is 2, Range of values is 0 to 1
  2297                           ; switch strategies available:
  2298                           ; Name         Instructions Cycles
  2299                           ; simple_byte            7     4 (average)
  2300                           ;	Chosen strategy is simple_byte
  2301   001416  5037               	movf	??_gpio_pin_write_logic^0,w,c
  2302   001418  0A00               	xorlw	0	; case 0
  2303   00141A  B4D8               	btfsc	status,2,c
  2304   00141C  EFAE  F009         	goto	l1329
  2305   001420  0A01               	xorlw	1	; case 1
  2306   001422  B4D8               	btfsc	status,2,c
  2307   001424  EFD9  F009         	goto	l1331
  2308   001428  EFAA  F009         	goto	l1327
  2309   00142C                     l1337:
  2310                           
  2311                           ;MCAL_Layer/GPIO/HAL_gpio.c: 87:     return ret;
  2312   00142C  503C               	movf	gpio_pin_write_logic@ret^0,w,c
  2313   00142E  0012               	return		;funcret
  2314   001430                     __end_of_gpio_pin_write_logic:
  2315                           	callstack 0
  2316                           
  2317                           	psect	smallconst
  2318   001000                     __psmallconst:
  2319                           	callstack 0
  2320   001000  00                 	db	0
  2321   001001  00                 	db	0	; dummy byte at the end
  2322   000000                     
  2323                           	psect	rparam
  2324   000000                     
  2325                           	psect	config
  2326                           
  2327                           ; Padding undefined space
  2328   300000                     	org	3145728
  2329   300000  FF                 	db	255
  2330                           
  2331                           ;Config register CONFIG1H @ 0x300001
  2332                           ;	Oscillator Selection bits
  2333                           ;	OSC = HS, HS oscillator
  2334                           ;	Fail-Safe Clock Monitor Enable bit
  2335                           ;	FCMEN = OFF, Fail-Safe Clock Monitor disabled
  2336                           ;	Internal/External Oscillator Switchover bit
  2337                           ;	IESO = OFF, Oscillator Switchover mode disabled
  2338   300001                     	org	3145729
  2339   300001  02                 	db	2
  2340                           
  2341                           ;Config register CONFIG2L @ 0x300002
  2342                           ;	Power-up Timer Enable bit
  2343                           ;	PWRT = OFF, PWRT disabled
  2344                           ;	Brown-out Reset Enable bits
  2345                           ;	BOREN = OFF, Brown-out Reset disabled in hardware and software
  2346                           ;	Brown Out Reset Voltage bits
  2347                           ;	BORV = 1, 
  2348   300002                     	org	3145730
  2349   300002  09                 	db	9
  2350                           
  2351                           ;Config register CONFIG2H @ 0x300003
  2352                           ;	Watchdog Timer Enable bit
  2353                           ;	WDT = OFF, WDT disabled (control is placed on the SWDTEN bit)
  2354                           ;	Watchdog Timer Postscale Select bits
  2355                           ;	WDTPS = 32768, 1:32768
  2356   300003                     	org	3145731
  2357   300003  1E                 	db	30
  2358                           
  2359                           ; Padding undefined space
  2360   300004                     	org	3145732
  2361   300004  FF                 	db	255
  2362                           
  2363                           ;Config register CONFIG3H @ 0x300005
  2364                           ;	CCP2 MUX bit
  2365                           ;	CCP2MX = PORTC, CCP2 input/output is multiplexed with RC1
  2366                           ;	PORTB A/D Enable bit
  2367                           ;	PBADEN = OFF, PORTB<4:0> pins are configured as digital I/O on Reset
  2368                           ;	Low-Power Timer1 Oscillator Enable bit
  2369                           ;	LPT1OSC = OFF, Timer1 configured for higher power operation
  2370                           ;	MCLR Pin Enable bit
  2371                           ;	MCLRE = ON, MCLR pin enabled; RE3 input pin disabled
  2372   300005                     	org	3145733
  2373   300005  81                 	db	129
  2374                           
  2375                           ;Config register CONFIG4L @ 0x300006
  2376                           ;	Stack Full/Underflow Reset Enable bit
  2377                           ;	STVREN = ON, Stack full/underflow will cause Reset
  2378                           ;	Single-Supply ICSP Enable bit
  2379                           ;	LVP = OFF, Single-Supply ICSP disabled
  2380                           ;	Extended Instruction Set Enable bit
  2381                           ;	XINST = OFF, Instruction set extension and Indexed Addressing mode disabled (Legacy mo
      +                          de)
  2382                           ;	Background Debugger Enable bit
  2383                           ;	DEBUG = 0x1, unprogrammed default
  2384   300006                     	org	3145734
  2385   300006  81                 	db	129
  2386                           
  2387                           ; Padding undefined space
  2388   300007                     	org	3145735
  2389   300007  FF                 	db	255
  2390                           
  2391                           ;Config register CONFIG5L @ 0x300008
  2392                           ;	Code Protection bit
  2393                           ;	CP0 = OFF, Block 0 (000800-003FFFh) not code-protected
  2394                           ;	Code Protection bit
  2395                           ;	CP1 = OFF, Block 1 (004000-007FFFh) not code-protected
  2396                           ;	Code Protection bit
  2397                           ;	CP2 = OFF, Block 2 (008000-00BFFFh) not code-protected
  2398                           ;	Code Protection bit
  2399                           ;	CP3 = OFF, Block 3 (00C000-00FFFFh) not code-protected
  2400   300008                     	org	3145736
  2401   300008  0F                 	db	15
  2402                           
  2403                           ;Config register CONFIG5H @ 0x300009
  2404                           ;	Boot Block Code Protection bit
  2405                           ;	CPB = OFF, Boot block (000000-0007FFh) not code-protected
  2406                           ;	Data EEPROM Code Protection bit
  2407                           ;	CPD = OFF, Data EEPROM not code-protected
  2408   300009                     	org	3145737
  2409   300009  C0                 	db	192
  2410                           
  2411                           ;Config register CONFIG6L @ 0x30000A
  2412                           ;	Write Protection bit
  2413                           ;	WRT0 = OFF, Block 0 (000800-003FFFh) not write-protected
  2414                           ;	Write Protection bit
  2415                           ;	WRT1 = OFF, Block 1 (004000-007FFFh) not write-protected
  2416                           ;	Write Protection bit
  2417                           ;	WRT2 = OFF, Block 2 (008000-00BFFFh) not write-protected
  2418                           ;	Write Protection bit
  2419                           ;	WRT3 = OFF, Block 3 (00C000-00FFFFh) not write-protected
  2420   30000A                     	org	3145738
  2421   30000A  0F                 	db	15
  2422                           
  2423                           ;Config register CONFIG6H @ 0x30000B
  2424                           ;	Configuration Register Write Protection bit
  2425                           ;	WRTC = OFF, Configuration registers (300000-3000FFh) not write-protected
  2426                           ;	Boot Block Write Protection bit
  2427                           ;	WRTB = OFF, Boot Block (000000-0007FFh) not write-protected
  2428                           ;	Data EEPROM Write Protection bit
  2429                           ;	WRTD = OFF, Data EEPROM not write-protected
  2430   30000B                     	org	3145739
  2431   30000B  E0                 	db	224
  2432                           
  2433                           ;Config register CONFIG7L @ 0x30000C
  2434                           ;	Table Read Protection bit
  2435                           ;	EBTR0 = OFF, Block 0 (000800-003FFFh) not protected from table reads executed in other
      +                           blocks
  2436                           ;	Table Read Protection bit
  2437                           ;	EBTR1 = OFF, Block 1 (004000-007FFFh) not protected from table reads executed in other
      +                           blocks
  2438                           ;	Table Read Protection bit
  2439                           ;	EBTR2 = OFF, Block 2 (008000-00BFFFh) not protected from table reads executed in other
      +                           blocks
  2440                           ;	Table Read Protection bit
  2441                           ;	EBTR3 = OFF, Block 3 (00C000-00FFFFh) not protected from table reads executed in other
      +                           blocks
  2442   30000C                     	org	3145740
  2443   30000C  0F                 	db	15
  2444                           
  2445                           ;Config register CONFIG7H @ 0x30000D
  2446                           ;	Boot Block Table Read Protection bit
  2447                           ;	EBTRB = OFF, Boot Block (000000-0007FFh) not protected from table reads executed in ot
      +                          her blocks
  2448   30000D                     	org	3145741
  2449   30000D  40                 	db	64
  2450                           tosu	equ	0xFFF
  2451                           tosh	equ	0xFFE
  2452                           tosl	equ	0xFFD
  2453                           stkptr	equ	0xFFC
  2454                           pclatu	equ	0xFFB
  2455                           pclath	equ	0xFFA
  2456                           pcl	equ	0xFF9
  2457                           tblptru	equ	0xFF8
  2458                           tblptrh	equ	0xFF7
  2459                           tblptrl	equ	0xFF6
  2460                           tablat	equ	0xFF5
  2461                           prodh	equ	0xFF4
  2462                           prodl	equ	0xFF3
  2463                           indf0	equ	0xFEF
  2464                           postinc0	equ	0xFEE
  2465                           postdec0	equ	0xFED
  2466                           preinc0	equ	0xFEC
  2467                           plusw0	equ	0xFEB
  2468                           fsr0h	equ	0xFEA
  2469                           fsr0l	equ	0xFE9
  2470                           wreg	equ	0xFE8
  2471                           indf1	equ	0xFE7
  2472                           postinc1	equ	0xFE6
  2473                           postdec1	equ	0xFE5
  2474                           preinc1	equ	0xFE4
  2475                           plusw1	equ	0xFE3
  2476                           fsr1h	equ	0xFE2
  2477                           fsr1l	equ	0xFE1
  2478                           bsr	equ	0xFE0
  2479                           indf2	equ	0xFDF
  2480                           postinc2	equ	0xFDE
  2481                           postdec2	equ	0xFDD
  2482                           preinc2	equ	0xFDC
  2483                           plusw2	equ	0xFDB
  2484                           fsr2h	equ	0xFDA
  2485                           fsr2l	equ	0xFD9
  2486                           status	equ	0xFD8

Data Sizes:
    Strings     0
    Constant    0
    Data        52
    BSS         10
    Persistent  0
    Stack       0

Auto Spaces:
    Space          Size  Autos    Used
    COMRAM          127     16      78
    BANK0           128      0       0
    BANK1           256      0       0
    BANK2           256      0       0
    BANK3           256      0       0
    BANK4           256      0       0
    BANK5           256      0       0
    BANK6           256      0       0
    BANK7           256      0       0
    BANK8           256      0       0
    BANK9           256      0       0
    BANK10          256      0       0
    BANK11          256      0       0
    BANK12          256      0       0
    BANK13          256      0       0
    BANK14          256      0       0
    BANK15          128      0       0

Pointer List with Targets:

    button_initialize@btn	PTR const struct . size(1) Largest target is 3
		 -> btn_count(COMRAM[3]), btn_led(COMRAM[3]), btn_reset(COMRAM[3]), 

    button_read@btn	PTR const struct . size(1) Largest target is 3
		 -> btn_count(COMRAM[3]), btn_led(COMRAM[3]), btn_reset(COMRAM[3]), 

    button_read@btn_st	PTR enum E2874 size(1) Largest target is 1
		 -> btn_count_st(COMRAM[1]), btn_led_st(COMRAM[1]), btn_reset_st(COMRAM[1]), 

    gpio_pin_direction_intailize@pin_config	PTR const struct . size(1) Largest target is 5
		 -> btn_count(COMRAM[3]), btn_led(COMRAM[3]), btn_reset(COMRAM[3]), LED_intailize@pin_obj(COMRAM[1]), 
		 -> seg_en_1(COMRAM[1]), seg_en_2(COMRAM[1]), seg_en_3(COMRAM[1]), seg_en_4(COMRAM[1]), 
		 -> segment_1(COMRAM[5]), segment_1$segment_pins(COMRAM[4]), 

    gpio_pin_intailize@pin_config	PTR const struct . size(1) Largest target is 5
		 -> LED_intailize@pin_obj(COMRAM[1]), seg_en_1(COMRAM[1]), seg_en_2(COMRAM[1]), seg_en_3(COMRAM[1]), 
		 -> seg_en_4(COMRAM[1]), segment_1(COMRAM[5]), segment_1$segment_pins(COMRAM[4]), 

    gpio_pin_read_logic@logic	PTR enum E2814 size(1) Largest target is 1
		 -> button_read@pin_logic_status(COMRAM[1]), 

    gpio_pin_read_logic@pin_config	PTR const struct . size(1) Largest target is 3
		 -> btn_count(COMRAM[3]), btn_led(COMRAM[3]), btn_reset(COMRAM[3]), 

    gpio_pin_write_logic@pin_config	PTR const struct . size(1) Largest target is 5
		 -> LED_intailize@pin_obj(COMRAM[1]), LED_TURN_OFF@pin_obj(COMRAM[1]), LED_TURN_ON@pin_obj(COMRAM[1]), seg_en_1(COMRAM[1]), 
		 -> seg_en_2(COMRAM[1]), seg_en_3(COMRAM[1]), seg_en_4(COMRAM[1]), segment_1(COMRAM[5]), 
		 -> segment_1$segment_pins(COMRAM[4]), 

    lat_regesters	PTR volatile unsigned char [5] size(2) Largest target is 1
		 -> LATA(BITBIGSFRll[1]), LATB(BITBIGSFRlh[1]), LATC(BITBIGSFRlh[1]), LATD(BITBIGSFRlh[1]), 
		 -> LATE(BITBIGSFRlh[1]), 

    LED_intailize@led	PTR const struct . size(1) Largest target is 1
		 -> led(COMRAM[1]), 

    LED_TURN_OFF@led	PTR const struct . size(1) Largest target is 1
		 -> led(COMRAM[1]), 

    LED_TURN_ON@led	PTR const struct . size(1) Largest target is 1
		 -> led(COMRAM[1]), 

    port_regesters	PTR volatile unsigned char [5] size(2) Largest target is 1
		 -> PORTA(BITBIGSFRll[1]), PORTB(BITBIGSFRll[1]), PORTC(BITBIGSFRll[1]), PORTD(BITBIGSFRll[1]), 
		 -> PORTE(BITBIGSFRll[1]), 

    seven_segment_intailize@segment	PTR const struct . size(1) Largest target is 5
		 -> segment_1(COMRAM[5]), 

    seven_segment_write_number@segment	PTR const struct . size(1) Largest target is 5
		 -> segment_1(COMRAM[5]), 

    tris_regesters	PTR volatile unsigned char [5] size(2) Largest target is 1
		 -> TRISA(BITBIGSFRll[1]), TRISB(BITBIGSFRh[1]), TRISC(BITBIGSFRh[1]), TRISD(BITBIGSFRh[1]), 
		 -> TRISE(BITBIGSFRh[1]), 


Critical Paths under _main in COMRAM

    _main->_seven_segment_write_number
    _seven_segment_write_number->___lwmod
    _button_read->_gpio_pin_read_logic
    _application_intailize->_LED_intailize
    _seven_segment_intailize->_gpio_pin_intailize
    _button_initialize->_gpio_pin_direction_intailize
    _LED_intailize->_gpio_pin_intailize
    _gpio_pin_intailize->_gpio_pin_write_logic
    ___lwmod->___lwdiv
    _LED_TURN_ON->_gpio_pin_write_logic
    _LED_TURN_OFF->_gpio_pin_write_logic

Critical Paths under _main in BANK0

    None.

Critical Paths under _main in BANK1

    None.

Critical Paths under _main in BANK2

    None.

Critical Paths under _main in BANK3

    None.

Critical Paths under _main in BANK4

    None.

Critical Paths under _main in BANK5

    None.

Critical Paths under _main in BANK6

    None.

Critical Paths under _main in BANK7

    None.

Critical Paths under _main in BANK8

    None.

Critical Paths under _main in BANK9

    None.

Critical Paths under _main in BANK10

    None.

Critical Paths under _main in BANK11

    None.

Critical Paths under _main in BANK12

    None.

Critical Paths under _main in BANK13

    None.

Critical Paths under _main in BANK14

    None.

Critical Paths under _main in BANK15

    None.

Call Graph Tables:

 ---------------------------------------------------------------------------------
 (Depth) Function   	        Calls       Base Space   Used Autos Params    Refs
 ---------------------------------------------------------------------------------
 (0) _main                                                 2     2      0   25419
                                             15 COMRAM     1     1      0
                       _LED_TURN_OFF
                        _LED_TURN_ON
                            ___lwdiv
                            ___lwmod
              _application_intailize
                        _button_read
               _gpio_pin_write_logic
         _seven_segment_write_number
 ---------------------------------------------------------------------------------
 (1) _seven_segment_write_number                           3     1      2    3315
                                             12 COMRAM     3     1      2
                            ___lwdiv (ARG)
                            ___lwmod (ARG)
               _gpio_pin_write_logic
 ---------------------------------------------------------------------------------
 (1) _button_read                                          5     3      2    1040
                                              6 COMRAM     5     3      2
                _gpio_pin_read_logic
 ---------------------------------------------------------------------------------
 (2) _gpio_pin_read_logic                                  7     5      2     292
                                              0 COMRAM     6     4      2
 ---------------------------------------------------------------------------------
 (1) _application_intailize                                1     1      0   11844
                      _LED_intailize
                  _button_initialize
                 _gpio_pin_intailize
            _seven_segment_intailize
 ---------------------------------------------------------------------------------
 (2) _seven_segment_intailize                              2     1      1    3802
                                             10 COMRAM     2     1      1
                 _gpio_pin_intailize
 ---------------------------------------------------------------------------------
 (2) _button_initialize                                    2     1      1     628
                                              7 COMRAM     2     1      1
       _gpio_pin_direction_intailize
 ---------------------------------------------------------------------------------
 (2) _LED_intailize                                        4     3      1    3816
                                             10 COMRAM     4     3      1
                 _gpio_pin_intailize
 ---------------------------------------------------------------------------------
 (3) _gpio_pin_intailize                                   2     1      1    3588
                                              8 COMRAM     2     1      1
       _gpio_pin_direction_intailize
               _gpio_pin_write_logic
 ---------------------------------------------------------------------------------
 (4) _gpio_pin_direction_intailize                         7     6      1     331
                                              0 COMRAM     7     6      1
 ---------------------------------------------------------------------------------
 (1) ___lwmod                                              5     1      4     767
                                              7 COMRAM     5     1      4
                            ___lwdiv (ARG)
 ---------------------------------------------------------------------------------
 (1) ___lwdiv                                              7     3      4     618
                                              0 COMRAM     7     3      4
 ---------------------------------------------------------------------------------
 (1) _LED_TURN_ON                                          4     3      1    2679
                                              8 COMRAM     4     3      1
               _gpio_pin_write_logic
 ---------------------------------------------------------------------------------
 (1) _LED_TURN_OFF                                         4     3      1    2679
                                              8 COMRAM     4     3      1
               _gpio_pin_write_logic
 ---------------------------------------------------------------------------------
 (2) _gpio_pin_write_logic                                 8     6      2    2459
                                              0 COMRAM     8     6      2
 ---------------------------------------------------------------------------------
 Estimated maximum stack depth 4
 ---------------------------------------------------------------------------------

 Call Graph Graphs:

 _main (ROOT)
   _LED_TURN_OFF
     _gpio_pin_write_logic
   _LED_TURN_ON
     _gpio_pin_write_logic
   ___lwdiv
   ___lwmod
     ___lwdiv (ARG)
   _application_intailize
     _LED_intailize
       _gpio_pin_intailize
         _gpio_pin_direction_intailize
         _gpio_pin_write_logic
     _button_initialize
       _gpio_pin_direction_intailize
     _gpio_pin_intailize
     _seven_segment_intailize
       _gpio_pin_intailize
   _button_read
     _gpio_pin_read_logic
   _gpio_pin_write_logic
   _seven_segment_write_number
     ___lwdiv (ARG)
     ___lwmod (ARG)
     _gpio_pin_write_logic (ARG)

 Address spaces:
Name               Size   Autos  Total    Cost      Usage
BIGRAM             F7F      0       0      40        0.0%
EEDATA             400      0       0       0        0.0%
BITBANK14          100      0       0      32        0.0%
BANK14             100      0       0      33        0.0%
BITBANK13          100      0       0      30        0.0%
BANK13             100      0       0      31        0.0%
BITBANK12          100      0       0      28        0.0%
BANK12             100      0       0      29        0.0%
BITBANK11          100      0       0      26        0.0%
BANK11             100      0       0      27        0.0%
BITBANK10          100      0       0      24        0.0%
BANK10             100      0       0      25        0.0%
BITBANK9           100      0       0      22        0.0%
BANK9              100      0       0      23        0.0%
BITBANK8           100      0       0      20        0.0%
BANK8              100      0       0      21        0.0%
BITBANK7           100      0       0      18        0.0%
BANK7              100      0       0      19        0.0%
BITBANK6           100      0       0      16        0.0%
BANK6              100      0       0      17        0.0%
BITBANK5           100      0       0      14        0.0%
BANK5              100      0       0      15        0.0%
BITBANK4           100      0       0      12        0.0%
BANK4              100      0       0      13        0.0%
BITBANK3           100      0       0      10        0.0%
BANK3              100      0       0      11        0.0%
BITBANK2           100      0       0       8        0.0%
BANK2              100      0       0       9        0.0%
BITBANK1           100      0       0       6        0.0%
BANK1              100      0       0       7        0.0%
BITBANK15           80      0       0      34        0.0%
BANK15              80      0       0      35        0.0%
BITBANK0            80      0       0       4        0.0%
BANK0               80      0       0       5        0.0%
BITCOMRAM           7F      0       0       0        0.0%
COMRAM              7F     10      4E       1       61.4%
BITBIGSFRh          69      0       0      36        0.0%
BITBIGSFRlh          4      0       0      37        0.0%
BITBIGSFRll          4      0       0      38        0.0%
BIGSFR               0      0       0     200        0.0%
BITSFR               0      0       0     200        0.0%
SFR                  0      0       0     200        0.0%
STACK                0      0       0       2        0.0%
NULL                 0      0       0       0        0.0%
ABS                  0      0      4E      39        0.0%
DATA                 0      0      4E       3        0.0%
CODE                 0      0       0       0        0.0%


Microchip Technology PIC18 Macro Assembler V2.46 build 20240104201356 
Symbol Table                                                                                   Tue Jul 16 15:34:22 2024

                                     l9 190C                                       _c 0045  
                                    l14 15F4                                      l23 199E  
                                    l51 17C0                                      l61 16FA  
                                    l29 14DE                                      l54 1686  
                                    l38 14E0                                      l47 176E  
                                    l65 1750                                      l58 16DC  
                    LED_intailize@F2894 004E                            ?_LED_TURN_ON 003D  
                                   l120 131E                                     l160 187A  
                                   l146 157A                                     l139 142E  
                                   l255 18C4                                     l756 1668  
                                   l749 1660                                     l766 1824  
                                   l759 181C                                     u600 1334  
                                   u601 1330                                     u610 1354  
                                   u611 1350                                     u700 1854  
                                   u701 1850                                     u710 18D6  
                                   u711 18D2                                     u624 137A  
                                   u640 1222                                     u720 1988  
                                   u800 159C                                     u625 1376  
                                   u641 121E                                     u721 1984  
                                   u801 1598                                     u634 13D0  
                                   u650 1242                                     u730 14F2  
                                   u810 1444                                     u635 13CC  
                                   u651 123E                                     u731 14EE  
                                   u811 1440                                     u740 1502  
                                   u820 1454                                     u741 14FE  
                                   u821 1450                                     u910 1610  
                                   u750 1522                                     u830 1482  
                                   u911 160C                                     u751 151E  
                                   u831 147E                                     u920 162E  
                                   u680 1306                                     u664 1268  
                                   u840 1492                                     u905 1740  
                                   u921 162A                                     u681 1300  
                                   u665 1264                                     u841 148E  
                                   u930 164A                                     u674 12BE  
                                   u690 1836                                     u770 1766  
                                   u850 14C6                                     u907 1742  
                                   u931 1646                                     u675 12BA  
                                   u691 1832                                     u771 1762  
                                   u851 14C2                                     u940 17D4  
                                   u764 156E                                     u860 14D6  
                                   _VAR 0049                                     u941 17D0  
                                   u765 156A                                     u861 14D2  
                                   u870 167E                                     u950 17F2  
                                   u686 1308                                     u790 158C  
                                   u871 167A                                     u951 17EE  
                                   u791 1588                                     u960 1808  
                                   u961 1804                                     u785 17B4  
                                   u890 16F2                                     u970 1176  
                                   u891 16EE                                     u787 17B6  
                                   u971 1172                                     u980 119A  
                                   u885 16CC                                     u981 1196  
                                   u990 11AA                                     u887 16CE  
                                   u991 11A6                                     _led 0030  
                                   wreg 0FE8             ?_seven_segment_write_number 0041  
                         ?_LED_TURN_OFF 003D                                    l1401 1526  
                                  l1331 13B2                                    l1323 1320  
                                  l1411 17A4                                    l1325 1334  
                                  l1413 17A6                                    l1405 1752  
                                  l1501 1894                                    l1421 157C  
                                  l1335 1402                                    l1327 1354  
                                  l1351 124A                                    l1415 17B6  
                                  l1407 1766                                    l1511 18BC  
                                  l1503 189C                                    l1423 158C  
                                  l1329 135C                                    l1337 142C  
                                  l1521 1620                                    l1513 15F6  
                                  l1353 12A0                                    l1345 120E  
                                  l1409 1772                                    l1417 17BE  
                                  l1505 18A4                                    l1441 1468  
                                  l1433 1430                                    l1425 159C  
                                  l1601 11AE                                    l1531 1654  
                                  l1523 162E                                    l1515 15FE  
                                  l1347 1222                                    l1363 1826  
                                  l1371 18C6                                    l1507 18AC  
                                  l1451 14C6                                    l1443 1482  
                                  l1435 1444                                    l1427 15A4  
                                  l1611 11E2                                    l1603 11B2  
                                  l1621 1416                                    l1461 166A  
                                  l1533 165A                                    l1525 1634  
                                  l1517 1610                                    l1541 17E4  
                                  l1357 12F0                                    l1349 1242  
                                  l1365 1836                                    l1381 1978  
                                  l1373 18D6                                    l1509 18B4  
                                  l1445 1492                                    l1437 1454  
                                  l1429 15F2                                    l1613 11F2  
                                  l1605 11C2                                    l1471 16CE  
                                  l1463 167E                                    l1527 164A  
                                  l1519 1618                                    l1543 17F2  
                                  l1535 17C2                                    l1359 131C  
                                  l1367 1854                                    l1383 1988  
                                  l1375 18DE                                    l1447 149E  
                                  l1439 145C                                    l1615 11FE  
                                  l1607 11D2                                    l1551 1002  
                                  l1481 16FE                                    l1465 168A  
                                  l1473 16DA                                    l1529 1652  
                                  l1545 1808                                    l1537 17D4  
                                  l1369 1858                                    l1385 1990  
                                  l1377 190A                                    l1393 14E2  
                                  l1457 14DA                                    l1449 14AC  
                                  l1609 11D6                                    l1561 1040  
                                  l1553 1006                                    l1483 1730  
                                  l1467 16BC                                    l1547 1810  
                                  l1539 17DC                                    l1387 1998  
                                  l1395 14F2                                    l1571 10A6  
                                  l1563 104C                                    l1555 1006  
                                  l1485 1732                                    l1477 16DE  
                                  l1469 16BE                                    l1549 1816  
                                  l1389 199C                                    l1493 187C  
                                  l1397 1502                                    l1581 1134  
                                  l1573 10DA                                    l1565 1080  
                                  l1557 1026                                    l1487 1742  
                                  l1479 16F2                                    l1495 187C  
                                  l1399 1522                                    l1591 1176  
                                  l1583 1140                                    l1575 10E6  
                                  l1567 108C                                    l1559 1032  
                                  l1489 174E                                    l1497 1884  
                                  l1593 117E                                    l1585 114E  
                                  l1577 10F4                                    l1569 109A  
                                  l1499 188C                                    l1595 118A  
                                  l1587 115A                                    l1579 1100  
                                  l1597 119A                                    l1589 1166  
                                  l1599 11AA                                    u1000 11C2  
                                  u1001 11BE                                    u1010 11D2  
                                  u1011 11CE                                    u1020 11F2  
                                  u1021 11EE                                    u1037 1038  
                                  u1047 1092                                    u1057 10EC  
                                  u1067 1146                                    _LATA 0F89  
                                  _LATB 0F8A                                    _LATC 0F8B  
                                  _LATD 0F8C                                    _LATE 0F8D  
               ??_application_intailize 0043                                    _main 1002  
                                  fsr1h 0FE2                                    fsr2h 0FDA  
                                  indf1 0FE7                                    indf2 0FDF  
                                  fsr1l 0FE1                                    fsr2l 0FD9  
                                  prodl 0FF3                                    start 0000  
                          ___param_bank 0000                    _gpio_pin_write_logic 1320  
                                 ?_main 0035                         __end_of___lwdiv 166A  
                       __end_of___lwmod 1826                                   _PORTA 0F80  
                                 _PORTB 0F81                                   _PORTC 0F82  
                                 _PORTD 0F83                                   _PORTE 0F84  
                                 _TRISA 0F92                                   _TRISB 0F93  
                                 _TRISC 0F94                                   _TRISD 0F95  
                                 _TRISE 0F96                            ?_button_read 003B  
                        ??_LED_TURN_OFF 003E             button_read@pin_logic_status 003F  
                                 tablat 0FF5                                   status 0FD8  
                       __initialization 190E                            __end_of_main 120E  
         gpio_pin_read_logic@pin_config 0035                   ?_gpio_pin_write_logic 0035  
                         _lat_regesters 000B                gpio_pin_read_logic@logic 0036  
                                ??_main 0044                           __activetblptr 0002  
                  LED_intailize@pin_obj 0042                         LED_TURN_OFF@led 003D  
                       LED_TURN_OFF@ret 003F                       _button_initialize 1978  
                    ?_button_initialize 003C                 _seven_segment_intailize 18C6  
                   ??_button_initialize 003D                           _LED_intailize 1752  
                             ??___lwdiv 0039                               ??___lwmod 0040  
                                clear_0 1934                                  isa$std 0001  
                                _number 0047                            __pdataCOMRAM 0001  
             __end_of_button_initialize 19A0                            __mediumconst 0000  
                                tblptrh 0FF7                                  tblptrl 0FF6  
                                tblptru 0FF8              seven_segment_intailize@ret 0040  
                            __accesstop 0080                 __end_of__initialization 193A  
                         ___rparam_used 0001                  ??_gpio_pin_write_logic 0037  
                        __pcstackCOMRAM 0035                    __end_of_LED_TURN_OFF 1752  
                        ?_LED_intailize 003F                    button_initialize@btn 003C  
                  button_initialize@ret 003D               ??_seven_segment_intailize 0040  
         __end_of_application_intailize 18C6                        LED_TURN_ON@F2899 004D  
     seven_segment_write_number@segment 0041                              _btn_led_st 002D  
                        _tris_regesters 0015                                 __Hparam 0000  
                               __Lparam 0000                         ??_LED_intailize 0040  
                    LED_TURN_ON@pin_obj 0040         __end_of_seven_segment_intailize 190E  
                   _gpio_pin_read_logic 14E2                                 ___lwdiv 15F6  
                               ___lwmod 17C2                            __psmallconst 1000  
            __end_of_gpio_pin_intailize 187C                                 __pcinit 190E  
                               __ramtop 1000                                 __ptext0 1002  
                               __ptext1 157C                                 __ptext2 1430  
                               __ptext3 14E2                                 __ptext4 187C  
                               __ptext5 18C6                                 __ptext6 1978  
                               __ptext7 1752                                 __ptext8 1826  
                               __ptext9 120E                                 _btn_led 0024  
                               _counter 004A                   gpio_pin_intailize@ret 003E  
                  ?_gpio_pin_read_logic 0035                    end_of_initialization 193A  
                         __Lmediumconst 0000                                 postdec1 0FE5  
                               postdec2 0FDD                                 postinc0 0FEE  
                               postinc1 0FE6                                 postinc2 0FDE  
                          _btn_count_st 002F    __end_of_gpio_pin_direction_intailize 1320  
          _gpio_pin_direction_intailize 120E                   ??_gpio_pin_read_logic 0037  
                          _LED_TURN_OFF 16DE                        LED_intailize@led 003F  
                      LED_intailize@ret 0041                            _btn_reset_st 002E  
          gpio_pin_intailize@pin_config 003D                    LED_TURN_TOGGEL@F2909 004B  
                         __pidataCOMRAM 1944                           ??_LED_TURN_ON 003E  
                   start_initialization 190E            ??_seven_segment_write_number 0043  
         ?_gpio_pin_direction_intailize 0035                          LED_TURN_ON@led 003D  
                        LED_TURN_ON@ret 003F  gpio_pin_direction_intailize@pin_config 0035  
       gpio_pin_direction_intailize@ret 003B                       button_read@btn_st 003C  
                         ??_button_read 003D                             __pbssCOMRAM 0045  
                   __end_of_LED_TURN_ON 16DE                       LED_TURN_OFF@F2904 004C  
        gpio_pin_write_logic@pin_config 0035                   _application_intailize 187C  
                      ___lwdiv@dividend 0035                     LED_TURN_OFF@pin_obj 0040  
                              ?___lwdiv 0035                                ?___lwmod 003C  
             gpio_pin_write_logic@logic 0036                               _btn_count 002A  
                             _btn_reset 0027                             __smallconst 1000  
              ?_seven_segment_intailize 003F                        ___lwdiv@quotient 0039  
                    _gpio_pin_intailize 1826                     __end_of_button_read 14E2  
        ??_gpio_pin_direction_intailize 0036                     ?_gpio_pin_intailize 003D  
                             _segment_1 001F                   __end_of_LED_intailize 17C2  
                           _LED_TURN_ON 166A                    ??_gpio_pin_intailize 003E  
    __end_of_seven_segment_write_number 15F6              _seven_segment_write_number 157C  
               gpio_pin_write_logic@ret 003C                               copy_data0 1922  
                ?_application_intailize 0035                                __Hrparam 0000  
                              __Lrparam 0000           seven_segment_write_number@ret 0043  
           __end_of_gpio_pin_read_logic 157C                          button_read@btn 003B  
                        button_read@ret 003E                             _button_read 1430  
                       ___lwdiv@divisor 0037                         ___lwdiv@counter 003B  
                              __ptext10 17C2                                __ptext11 15F6  
                              __ptext12 166A                                __ptext13 16DE  
                              __ptext14 1320                                _seg_en_1 0034  
                              _seg_en_2 0033                                _seg_en_3 0032  
                              _seg_en_4 0031                                isa$xinst 0000  
        seven_segment_intailize@segment 003F        seven_segment_write_number@number 0042  
          __end_of_gpio_pin_write_logic 1430                        ___lwmod@dividend 003C  
                        _port_regesters 0001                         ___lwmod@divisor 003E  
                       ___lwmod@counter 0040  
